Certificate:
    Data:
        Version: 3 (0x2)
        Serial Number:
            03:c4:db:94:96:48:b2:1c:db:d3:1f:97:13:54:e4:9d
        Signature Algorithm: sha256WithRSAEncryption
        Issuer: CN=ChangeMe
        Validity
            Not Before: Jul 28 08:49:50 2021 GMT
            Not After : Jul 26 08:49:50 2031 GMT
        Subject: CN=apt05
        Subject Public Key Info:
            Public Key Algorithm: rsaEncryption
                RSA Public-Key: (2048 bit)
                Modulus:
                    00:cc:2f:56:fa:91:fc:ea:53:1a:ce:cf:29:5c:1a:
                    ea:66:c1:81:53:e6:58:64:b0:92:da:76:14:16:76:
                    8a:c5:dd:b1:76:cc:75:34:09:71:90:70:f3:8b:76:
                    92:6b:50:f1:8a:8a:88:4c:b8:a0:90:4f:61:c8:04:
                    1e:fc:27:a6:67:c2:8c:46:b8:f3:3c:ee:6e:53:78:
                    88:91:20:c7:22:bb:17:cd:3a:73:f3:43:73:30:04:
                    02:c1:9e:45:04:79:77:ba:8d:ed:d0:b7:3c:5a:79:
                    3f:b4:59:f8:67:96:63:39:37:21:d3:2e:9f:20:e1:
                    36:73:de:3d:db:8b:8b:4a:8c:67:fb:33:2d:e1:78:
                    20:8e:07:72:45:5f:f5:e0:b0:3a:49:ef:57:ba:5a:
                    9e:6c:5c:fd:c5:6f:31:e5:ba:ce:a9:07:d4:fe:ba:
                    64:6e:5f:58:0a:e0:be:c8:83:7e:a0:c7:da:a0:bd:
                    5b:af:b8:f7:0f:b1:f7:22:88:78:ce:39:e2:f7:1d:
                    5a:be:ed:54:69:7e:ba:4c:ca:3d:81:90:7b:57:94:
                    0e:6e:08:5c:96:57:fe:f1:28:9b:1a:39:28:bb:db:
                    be:56:81:50:d2:8a:d6:fe:32:48:9e:17:3d:9b:ec:
                    d2:b1:38:78:ec:a4:2a:be:33:5f:86:87:80:52:4c:
                    17:57
                Exponent: 65537 (0x10001)
        X509v3 extensions:
            X509v3 Basic Constraints: 
                CA:FALSE
            X509v3 Subject Key Identifier: 
                9A:18:2C:D3:85:BD:5D:53:CD:FC:C3:81:0B:96:0A:14:37:6D:AC:FB
            X509v3 Authority Key Identifier: 
                keyid:BA:5B:CC:A6:E0:EE:ED:35:17:DA:E1:A8:A0:14:22:0F:CF:0F:74:57
                DirName:/CN=ChangeMe
                serial:70:C5:86:DC:F9:05:D5:9E:D8:0A:11:56:E0:11:0F:36:A1:FD:8E:9B

            X509v3 Extended Key Usage: 
                TLS Web Client Authentication
            X509v3 Key Usage: 
                Digital Signature
    Signature Algorithm: sha256WithRSAEncryption
         5a:c2:24:54:67:14:ce:e8:c2:89:ea:16:b4:b4:ee:f5:b8:30:
         1c:40:72:d2:31:a6:52:70:0e:36:d6:e5:71:6e:5a:9d:a8:c0:
         ce:24:93:ee:77:d7:7c:70:23:47:e9:b6:7e:04:c2:63:bd:0b:
         a7:5d:ed:08:71:2e:e4:a0:8e:1d:97:f9:e0:1b:57:84:b1:9e:
         80:29:9f:25:ee:dc:67:c4:05:9a:b9:e8:1e:03:ca:a5:b9:ae:
         e9:f3:2f:59:a7:4a:83:dd:fb:08:a2:d5:8c:e1:16:1e:7f:b7:
         21:81:53:b4:d7:18:e6:a1:ee:cf:2b:17:1e:de:b9:5c:be:2b:
         25:61:06:7e:0a:61:da:10:47:86:92:d3:a3:55:d1:be:ca:c4:
         3a:0e:7c:a9:4e:2d:73:e8:41:9f:c7:02:c2:9d:0c:c9:8d:2a:
         ef:5e:90:67:32:6d:85:2e:27:5f:30:9b:b4:46:a8:a2:80:2c:
         d7:39:a8:ee:1f:62:00:23:d9:d2:25:4a:6c:75:c1:f2:3e:7d:
         86:2c:c3:e7:39:ef:5d:88:9d:0f:19:48:06:ce:45:9b:9c:1c:
         87:39:04:78:2b:bf:39:b9:09:f4:bd:0e:bb:fc:93:ec:ff:9a:
         f8:48:89:35:6b:e2:41:98:19:7b:1f:fd:69:87:22:bd:e6:d8:
         db:90:e5:db
-----BEGIN CERTIFICATE-----
MIIDTTCCAjWgAwIBAgIQA8TblJZIshzb0x+XE1TknTANBgkqhkiG9w0BAQsFADAT
MREwDwYDVQQDDAhDaGFuZ2VNZTAeFw0yMTA3MjgwODQ5NTBaFw0zMTA3MjYwODQ5
NTBaMBAxDjAMBgNVBAMMBWFwdDA1MIIBIjANBgkqhkiG9w0BAQEFAAOCAQ8AMIIB
CgKCAQEAzC9W+pH86lMazs8pXBrqZsGBU+ZYZLCS2nYUFnaKxd2xdsx1NAlxkHDz
i3aSa1DxioqITLigkE9hyAQe/CemZ8KMRrjzPO5uU3iIkSDHIrsXzTpz80NzMAQC
wZ5FBHl3uo3t0Lc8Wnk/tFn4Z5ZjOTch0y6fIOE2c94924uLSoxn+zMt4Xggjgdy
RV/14LA6Se9XulqebFz9xW8x5brOqQfU/rpkbl9YCuC+yIN+oMfaoL1br7j3D7H3
Ioh4zjni9x1avu1UaX66TMo9gZB7V5QObghcllf+8SibGjkou9u+VoFQ0orW/jJI
nhc9m+zSsTh47KQqvjNfhoeAUkwXVwIDAQABo4GfMIGcMAkGA1UdEwQCMAAwHQYD
VR0OBBYEFJoYLNOFvV1TzfzDgQuWChQ3baz7ME4GA1UdIwRHMEWAFLpbzKbg7u01
F9rhqKAUIg/PD3RXoRekFTATMREwDwYDVQQDDAhDaGFuZ2VNZYIUcMWG3PkF1Z7Y
ChFW4BEPNqH9jpswEwYDVR0lBAwwCgYIKwYBBQUHAwIwCwYDVR0PBAQDAgeAMA0G
CSqGSIb3DQEBCwUAA4IBAQBawiRUZxTO6MKJ6ha0tO71uDAcQHLSMaZScA421uVx
blqdqMDOJJPud9d8cCNH6bZ+BMJjvQunXe0IcS7koI4dl/ngG1eEsZ6AKZ8l7txn
xAWauegeA8qlua7p8y9Zp0qD3fsIotWM4RYef7chgVO01xjmoe7PKxce3rlcvisl
YQZ+CmHaEEeGktOjVdG+ysQ6DnypTi1z6EGfxwLCnQzJjSrvXpBnMm2FLidfMJu0
RqiigCzXOajuH2IAI9nSJUpsdcHyPn2GLMPnOe9diJ0PGUgGzkWbnByHOQR4K785
uQn0vQ67/JPs/5r4SIk1a+JBmBl7H/1phyK95tjbkOXb
-----END CERTIFICATE-----
