Certificate:
    Data:
        Version: 3 (0x2)
        Serial Number:
            3d:cc:a9:91:be:a3:0e:a9:d7:07:f0:b2:ff:cd:7d:f0
        Signature Algorithm: sha256WithRSAEncryption
        Issuer: CN=ChangeMe
        Validity
            Not Before: Jul 28 08:36:26 2021 GMT
            Not After : Jul 26 08:36:26 2031 GMT
        Subject: CN=webkey
        Subject Public Key Info:
            Public Key Algorithm: rsaEncryption
                RSA Public-Key: (2048 bit)
                Modulus:
                    00:a4:e3:88:23:d8:cf:ce:41:6a:b3:6e:86:6d:cf:
                    ea:89:1e:ad:38:a5:3e:5d:3e:69:43:4c:2d:1b:c8:
                    c0:3e:96:a9:63:86:08:2f:4b:35:e8:be:2c:d2:f3:
                    df:12:8e:c3:2b:2d:ad:f0:b8:16:4d:a9:5a:2b:9f:
                    c1:1d:cd:68:35:b2:cc:84:eb:e5:75:f9:62:f4:2e:
                    92:db:6c:30:a6:65:92:6b:ee:e4:6a:47:fb:29:69:
                    15:6c:5e:30:10:65:7e:42:54:df:c8:8a:2b:e7:d8:
                    06:df:43:ad:46:8d:bd:12:53:23:ba:2d:f9:5b:5f:
                    f9:59:50:cb:0c:81:4e:4a:c6:52:36:28:4d:a0:09:
                    30:5b:24:eb:7b:36:78:81:c4:12:2a:00:24:61:a7:
                    58:c9:84:ba:b4:ae:5c:cf:fb:cd:93:e8:f4:99:12:
                    1c:96:61:7b:68:ba:29:c4:18:f4:ba:82:03:26:4d:
                    a8:a8:1c:7f:61:93:2e:0d:53:b5:53:2e:b7:24:54:
                    1c:9d:43:5d:1a:54:6c:f9:0e:5b:da:38:91:65:cb:
                    c3:08:c5:a2:6b:fc:54:9b:03:7d:d1:e5:a0:49:87:
                    85:43:ef:75:34:55:8e:f5:1d:e8:80:b7:b3:37:51:
                    a7:82:1a:d5:8e:d1:83:2d:8d:1a:da:5b:7f:87:7c:
                    37:4b
                Exponent: 65537 (0x10001)
        X509v3 extensions:
            X509v3 Basic Constraints: 
                CA:FALSE
            X509v3 Subject Key Identifier: 
                8F:B3:85:20:B0:0D:7B:05:89:8F:B9:62:03:75:02:1C:C2:63:D3:FB
            X509v3 Authority Key Identifier: 
                keyid:BA:5B:CC:A6:E0:EE:ED:35:17:DA:E1:A8:A0:14:22:0F:CF:0F:74:57
                DirName:/CN=ChangeMe
                serial:70:C5:86:DC:F9:05:D5:9E:D8:0A:11:56:E0:11:0F:36:A1:FD:8E:9B

            X509v3 Extended Key Usage: 
                TLS Web Client Authentication
            X509v3 Key Usage: 
                Digital Signature
    Signature Algorithm: sha256WithRSAEncryption
         8c:b0:df:3d:f4:46:70:a6:fd:15:f0:15:3e:93:72:f8:7a:af:
         7c:0b:4c:7e:f8:e6:8d:ea:fe:e3:2e:55:c0:22:5d:a9:41:dd:
         b6:2c:90:df:42:cb:39:c7:62:d5:c5:f5:dd:b2:41:59:4e:71:
         bc:20:0a:7a:51:32:eb:10:f2:67:bb:02:02:77:98:ff:42:91:
         d8:6b:6b:ac:c6:df:33:52:f1:a9:6a:de:2c:1c:da:2a:54:13:
         d1:84:d5:b6:fb:dd:db:78:73:c8:1f:93:b9:0a:29:9c:e9:f4:
         0d:96:5e:8b:e0:57:49:24:e2:ab:8c:83:a7:0b:e9:33:9d:df:
         b0:5c:38:7a:58:92:27:d0:1e:b1:a8:99:c5:8a:eb:40:99:ef:
         9a:49:e3:50:41:e0:c3:aa:c6:dd:3a:3f:68:89:8f:41:28:a5:
         0d:e2:0c:8d:bd:a9:aa:0f:ef:34:8e:b1:a9:35:d5:77:5d:d3:
         be:0b:99:aa:33:96:cc:95:22:2e:b7:d9:87:ff:37:62:a4:52:
         0c:d9:2e:99:0f:eb:0f:b7:cc:b6:ee:69:a7:f8:89:d6:3c:cc:
         36:4b:03:4f:04:b2:98:64:b5:64:89:55:dc:f1:8d:79:74:da:
         56:3f:46:a6:09:b3:a2:b5:78:3f:54:2d:9e:ce:fc:1d:6b:07:
         d8:63:f6:1a
-----BEGIN CERTIFICATE-----
MIIDTjCCAjagAwIBAgIQPcypkb6jDqnXB/Cy/8198DANBgkqhkiG9w0BAQsFADAT
MREwDwYDVQQDDAhDaGFuZ2VNZTAeFw0yMTA3MjgwODM2MjZaFw0zMTA3MjYwODM2
MjZaMBExDzANBgNVBAMMBndlYmtleTCCASIwDQYJKoZIhvcNAQEBBQADggEPADCC
AQoCggEBAKTjiCPYz85BarNuhm3P6okerTilPl0+aUNMLRvIwD6WqWOGCC9LNei+
LNLz3xKOwystrfC4Fk2pWiufwR3NaDWyzITr5XX5YvQukttsMKZlkmvu5GpH+ylp
FWxeMBBlfkJU38iKK+fYBt9DrUaNvRJTI7ot+Vtf+VlQywyBTkrGUjYoTaAJMFsk
63s2eIHEEioAJGGnWMmEurSuXM/7zZPo9JkSHJZhe2i6KcQY9LqCAyZNqKgcf2GT
Lg1TtVMutyRUHJ1DXRpUbPkOW9o4kWXLwwjFomv8VJsDfdHloEmHhUPvdTRVjvUd
6IC3szdRp4Ia1Y7Rgy2NGtpbf4d8N0sCAwEAAaOBnzCBnDAJBgNVHRMEAjAAMB0G
A1UdDgQWBBSPs4UgsA17BYmPuWIDdQIcwmPT+zBOBgNVHSMERzBFgBS6W8ym4O7t
NRfa4aigFCIPzw90V6EXpBUwEzERMA8GA1UEAwwIQ2hhbmdlTWWCFHDFhtz5BdWe
2AoRVuARDzah/Y6bMBMGA1UdJQQMMAoGCCsGAQUFBwMCMAsGA1UdDwQEAwIHgDAN
BgkqhkiG9w0BAQsFAAOCAQEAjLDfPfRGcKb9FfAVPpNy+HqvfAtMfvjmjer+4y5V
wCJdqUHdtiyQ30LLOcdi1cX13bJBWU5xvCAKelEy6xDyZ7sCAneY/0KR2GtrrMbf
M1LxqWreLBzaKlQT0YTVtvvd23hzyB+TuQopnOn0DZZei+BXSSTiq4yDpwvpM53f
sFw4eliSJ9AesaiZxYrrQJnvmknjUEHgw6rG3To/aImPQSilDeIMjb2pqg/vNI6x
qTXVd13TvguZqjOWzJUiLrfZh/83YqRSDNkumQ/rD7fMtu5pp/iJ1jzMNksDTwSy
mGS1ZIlV3PGNeXTaVj9GpgmzorV4P1Qtns78HWsH2GP2Gg==
-----END CERTIFICATE-----
