Certificate:
    Data:
        Version: 3 (0x2)
        Serial Number:
            58:c6:a8:af:7f:bc:23:09:27:d4:14:74:df:4a:2c:27
        Signature Algorithm: sha256WithRSAEncryption
        Issuer: CN=ChangeMe
        Validity
            Not Before: Jul 28 08:33:38 2021 GMT
            Not After : Jul 26 08:33:38 2031 GMT
        Subject: CN=dbkey04
        Subject Public Key Info:
            Public Key Algorithm: rsaEncryption
                RSA Public-Key: (2048 bit)
                Modulus:
                    00:c0:9e:04:5b:8d:87:b8:b5:2d:04:93:3f:fe:d6:
                    4c:37:34:d3:e2:86:34:f0:f2:ba:11:3e:77:ac:7a:
                    49:e8:eb:cf:80:2b:6a:d5:c7:07:f4:4f:37:db:5d:
                    27:52:62:dd:f0:36:d8:2e:00:82:94:13:fd:cd:11:
                    77:9c:62:59:3e:55:92:7b:f9:dc:9a:54:3b:26:21:
                    bf:2b:38:38:49:50:84:9f:be:5a:72:d7:d1:57:1f:
                    9c:38:63:68:1f:c8:14:1e:d0:17:3e:2f:cf:f3:88:
                    c2:cd:c8:49:25:cb:42:46:60:22:97:67:d8:50:6a:
                    fa:97:bd:97:d1:60:27:e9:fa:a3:b7:44:7f:20:97:
                    20:e0:c3:22:bf:21:3c:e7:4b:ce:12:2f:cd:f9:1c:
                    d1:55:e3:53:7d:63:6f:1a:0e:7a:8e:99:c4:6f:1c:
                    d5:71:8f:5f:e5:1b:eb:75:5f:55:b8:f8:68:61:2a:
                    12:49:b6:f8:32:ef:90:17:39:8a:31:10:27:59:d2:
                    eb:a1:e6:d9:62:be:af:6b:73:68:cb:fd:2c:2f:fa:
                    76:8f:54:56:e0:7d:6c:cc:c9:8e:af:2e:ca:50:61:
                    13:6c:f6:cd:73:48:71:e9:d3:ec:ed:a1:00:bb:8d:
                    d9:44:b3:b5:24:21:bd:66:68:df:13:10:e2:c2:2f:
                    00:bf
                Exponent: 65537 (0x10001)
        X509v3 extensions:
            X509v3 Basic Constraints: 
                CA:FALSE
            X509v3 Subject Key Identifier: 
                FF:C7:4F:C9:7D:1A:25:77:65:82:95:D5:E8:58:0E:7C:91:B0:38:AE
            X509v3 Authority Key Identifier: 
                keyid:BA:5B:CC:A6:E0:EE:ED:35:17:DA:E1:A8:A0:14:22:0F:CF:0F:74:57
                DirName:/CN=ChangeMe
                serial:70:C5:86:DC:F9:05:D5:9E:D8:0A:11:56:E0:11:0F:36:A1:FD:8E:9B

            X509v3 Extended Key Usage: 
                TLS Web Client Authentication
            X509v3 Key Usage: 
                Digital Signature
    Signature Algorithm: sha256WithRSAEncryption
         4c:84:56:41:1f:d8:a8:e0:06:c9:3f:3a:ec:6e:2e:ca:0f:aa:
         6e:c7:8d:33:9a:f8:54:80:cc:79:94:f2:e0:62:41:cf:b7:20:
         ce:70:d7:06:80:ad:2f:a2:d4:02:1a:e3:95:54:70:c7:9c:2c:
         71:70:cc:d2:b5:53:e0:f1:9c:bd:41:94:46:a2:99:75:6a:1d:
         ec:47:25:ec:81:cf:3f:16:0d:96:dd:66:b9:cd:af:42:24:1e:
         b4:06:21:ab:6a:4f:98:e3:6e:c0:86:75:3e:99:5d:79:59:a9:
         37:b4:7e:cf:87:6b:42:72:39:db:69:d2:cb:26:4a:2d:2a:9d:
         ff:e0:80:09:14:ff:55:fd:ab:1f:e2:bc:51:35:55:74:07:d9:
         8d:85:f1:02:a0:5e:0c:94:e0:85:8a:96:e2:3f:4b:27:2b:dc:
         ce:1b:b0:d1:51:eb:08:28:49:a7:8f:93:14:c3:ba:23:71:79:
         99:3b:06:39:f9:d6:21:64:59:29:4b:fc:22:fd:67:0d:b2:cc:
         9f:19:3b:f9:37:f7:be:20:d9:6f:09:b0:2a:a3:a0:91:5a:46:
         e7:72:3e:37:92:7f:88:e6:b6:47:b2:12:6a:46:5a:79:12:02:
         4e:2e:d5:ab:9e:9f:bf:39:46:b2:5f:4e:ab:d4:c5:a8:11:ad:
         f2:19:ec:c0
-----BEGIN CERTIFICATE-----
MIIDTzCCAjegAwIBAgIQWMaor3+8Iwkn1BR030osJzANBgkqhkiG9w0BAQsFADAT
MREwDwYDVQQDDAhDaGFuZ2VNZTAeFw0yMTA3MjgwODMzMzhaFw0zMTA3MjYwODMz
MzhaMBIxEDAOBgNVBAMMB2Ria2V5MDQwggEiMA0GCSqGSIb3DQEBAQUAA4IBDwAw
ggEKAoIBAQDAngRbjYe4tS0Ekz/+1kw3NNPihjTw8roRPnesekno68+AK2rVxwf0
TzfbXSdSYt3wNtguAIKUE/3NEXecYlk+VZJ7+dyaVDsmIb8rODhJUISfvlpy19FX
H5w4Y2gfyBQe0Bc+L8/ziMLNyEkly0JGYCKXZ9hQavqXvZfRYCfp+qO3RH8glyDg
wyK/ITznS84SL835HNFV41N9Y28aDnqOmcRvHNVxj1/lG+t1X1W4+GhhKhJJtvgy
75AXOYoxECdZ0uuh5tlivq9rc2jL/Swv+naPVFbgfWzMyY6vLspQYRNs9s1zSHHp
0+ztoQC7jdlEs7UkIb1maN8TEOLCLwC/AgMBAAGjgZ8wgZwwCQYDVR0TBAIwADAd
BgNVHQ4EFgQU/8dPyX0aJXdlgpXV6FgOfJGwOK4wTgYDVR0jBEcwRYAUulvMpuDu
7TUX2uGooBQiD88PdFehF6QVMBMxETAPBgNVBAMMCENoYW5nZU1lghRwxYbc+QXV
ntgKEVbgEQ82of2OmzATBgNVHSUEDDAKBggrBgEFBQcDAjALBgNVHQ8EBAMCB4Aw
DQYJKoZIhvcNAQELBQADggEBAEyEVkEf2KjgBsk/OuxuLsoPqm7HjTOa+FSAzHmU
8uBiQc+3IM5w1waArS+i1AIa45VUcMecLHFwzNK1U+DxnL1BlEaimXVqHexHJeyB
zz8WDZbdZrnNr0IkHrQGIatqT5jjbsCGdT6ZXXlZqTe0fs+Ha0JyOdtp0ssmSi0q
nf/ggAkU/1X9qx/ivFE1VXQH2Y2F8QKgXgyU4IWKluI/Sycr3M4bsNFR6wgoSaeP
kxTDuiNxeZk7Bjn51iFkWSlL/CL9Zw2yzJ8ZO/k3974g2W8JsCqjoJFaRudyPjeS
f4jmtkeyEmpGWnkSAk4u1auen785RrJfTqvUxagRrfIZ7MA=
-----END CERTIFICATE-----
