Certificate:
    Data:
        Version: 3 (0x2)
        Serial Number:
            be:7e:eb:5f:91:86:f1:85:17:6d:5e:38:80:39:6b:0f
        Signature Algorithm: sha256WithRSAEncryption
        Issuer: CN=ChangeMe
        Validity
            Not Before: Jul 28 06:10:57 2021 GMT
            Not After : Jul 26 06:10:57 2031 GMT
        Subject: CN=server
        Subject Public Key Info:
            Public Key Algorithm: rsaEncryption
                RSA Public-Key: (2048 bit)
                Modulus:
                    00:a1:57:6a:d1:62:20:d0:2b:29:95:6e:da:0d:06:
                    b2:30:d1:4a:29:8f:5d:7f:05:2d:9e:b1:bf:8d:6c:
                    e9:c4:84:19:10:13:ef:2a:3d:e9:1a:fa:c1:ae:2d:
                    ce:b0:89:1d:96:27:2d:54:44:bd:0b:f9:35:57:00:
                    d8:50:fa:fb:1e:26:dc:c4:ec:a3:24:cc:8b:63:2a:
                    db:51:43:03:be:c7:03:b7:d2:8c:03:14:fa:5d:88:
                    5f:55:ec:09:53:42:1d:56:f6:94:a1:96:98:16:7a:
                    84:97:0e:81:75:50:8e:13:da:9f:b1:e0:02:6c:d6:
                    fa:0e:96:92:6f:d1:56:3f:c4:b0:27:c7:ea:83:cd:
                    a5:d2:fc:58:40:a3:c0:dc:80:fa:79:ed:4e:63:08:
                    f2:5b:a0:c5:70:24:0f:a9:b0:9b:7b:e3:eb:c0:f2:
                    15:7c:14:11:18:03:16:4e:55:33:07:67:24:24:21:
                    bd:67:34:b2:aa:22:81:e2:7c:c1:be:95:cf:a8:32:
                    d1:19:0f:e0:67:0c:f6:fb:8b:55:2d:54:56:31:7a:
                    86:be:d5:77:49:91:35:63:5a:ad:72:5e:ea:bd:9d:
                    10:3a:76:22:c7:26:89:fd:a8:65:f6:ce:81:25:47:
                    08:9c:36:31:a5:3c:c5:e0:6f:84:05:1b:e1:45:c9:
                    bc:6b
                Exponent: 65537 (0x10001)
        X509v3 extensions:
            X509v3 Basic Constraints: 
                CA:FALSE
            X509v3 Subject Key Identifier: 
                C5:56:F1:33:FF:CF:29:1F:17:C2:38:4D:7D:24:6A:E2:D5:9A:F9:0B
            X509v3 Authority Key Identifier: 
                keyid:BA:5B:CC:A6:E0:EE:ED:35:17:DA:E1:A8:A0:14:22:0F:CF:0F:74:57
                DirName:/CN=ChangeMe
                serial:70:C5:86:DC:F9:05:D5:9E:D8:0A:11:56:E0:11:0F:36:A1:FD:8E:9B

            X509v3 Extended Key Usage: 
                TLS Web Server Authentication
            X509v3 Key Usage: 
                Digital Signature, Key Encipherment
            X509v3 Subject Alternative Name: 
                DNS:server
    Signature Algorithm: sha256WithRSAEncryption
         34:07:5d:0e:2f:e3:f7:3e:41:ac:c8:1b:a6:3e:af:68:5a:e7:
         ff:14:18:f1:af:4d:94:a1:cb:0c:19:f1:f6:f7:49:5a:c4:e0:
         35:45:b4:c0:36:dc:81:6f:f0:98:72:4f:be:82:77:e7:5c:f8:
         8d:9e:93:85:d9:fb:48:04:7a:59:24:6b:04:f0:5c:19:3b:69:
         d3:d9:4e:d7:a6:8b:dd:6b:0a:30:1e:d3:d0:f3:69:f2:5b:17:
         5c:bf:fc:b8:91:22:49:5a:16:33:77:f7:7f:a6:ed:ef:ec:d7:
         f1:12:e0:99:7b:f4:7a:1e:31:bc:93:0e:8f:63:11:be:6c:3f:
         d4:26:d9:ef:f1:a1:fb:ff:16:c5:b9:5a:c5:18:3a:94:d2:e2:
         32:22:83:ce:04:ae:3a:70:e7:c9:a1:b9:41:e2:e9:68:be:2c:
         62:43:7c:cb:7f:b9:8c:fc:70:50:74:04:74:a1:e0:9f:68:f0:
         fc:19:f5:43:b5:77:56:33:d6:ef:ba:b0:20:6b:17:38:49:4b:
         93:9e:28:d2:d5:1f:54:85:ca:5e:b2:a8:8f:0c:e1:02:92:37:
         5a:6a:5f:3c:be:90:e1:18:bd:04:4c:c9:6b:a0:87:d2:e3:49:
         76:fd:c2:03:29:67:08:1e:98:44:c3:a4:ff:cb:52:ed:67:ec:
         1a:06:47:d9
-----BEGIN CERTIFICATE-----
MIIDYjCCAkqgAwIBAgIRAL5+61+RhvGFF21eOIA5aw8wDQYJKoZIhvcNAQELBQAw
EzERMA8GA1UEAwwIQ2hhbmdlTWUwHhcNMjEwNzI4MDYxMDU3WhcNMzEwNzI2MDYx
MDU3WjARMQ8wDQYDVQQDDAZzZXJ2ZXIwggEiMA0GCSqGSIb3DQEBAQUAA4IBDwAw
ggEKAoIBAQChV2rRYiDQKymVbtoNBrIw0Uopj11/BS2esb+NbOnEhBkQE+8qPeka
+sGuLc6wiR2WJy1URL0L+TVXANhQ+vseJtzE7KMkzItjKttRQwO+xwO30owDFPpd
iF9V7AlTQh1W9pShlpgWeoSXDoF1UI4T2p+x4AJs1voOlpJv0VY/xLAnx+qDzaXS
/FhAo8DcgPp57U5jCPJboMVwJA+psJt74+vA8hV8FBEYAxZOVTMHZyQkIb1nNLKq
IoHifMG+lc+oMtEZD+BnDPb7i1UtVFYxeoa+1XdJkTVjWq1yXuq9nRA6diLHJon9
qGX2zoElRwicNjGlPMXgb4QFG+FFybxrAgMBAAGjgbIwga8wCQYDVR0TBAIwADAd
BgNVHQ4EFgQUxVbxM//PKR8XwjhNfSRq4tWa+QswTgYDVR0jBEcwRYAUulvMpuDu
7TUX2uGooBQiD88PdFehF6QVMBMxETAPBgNVBAMMCENoYW5nZU1lghRwxYbc+QXV
ntgKEVbgEQ82of2OmzATBgNVHSUEDDAKBggrBgEFBQcDATALBgNVHQ8EBAMCBaAw
EQYDVR0RBAowCIIGc2VydmVyMA0GCSqGSIb3DQEBCwUAA4IBAQA0B10OL+P3PkGs
yBumPq9oWuf/FBjxr02UocsMGfH290laxOA1RbTANtyBb/CYck++gnfnXPiNnpOF
2ftIBHpZJGsE8FwZO2nT2U7XpovdawowHtPQ82nyWxdcv/y4kSJJWhYzd/d/pu3v
7NfxEuCZe/R6HjG8kw6PYxG+bD/UJtnv8aH7/xbFuVrFGDqU0uIyIoPOBK46cOfJ
oblB4ulovixiQ3zLf7mM/HBQdAR0oeCfaPD8GfVDtXdWM9bvurAgaxc4SUuTnijS
1R9UhcpesqiPDOECkjdaal88vpDhGL0ETMlroIfS40l2/cIDKWcIHphEw6T/y1Lt
Z+waBkfZ
-----END CERTIFICATE-----
