Certificate:
    Data:
        Version: 3 (0x2)
        Serial Number:
            85:d3:19:9a:db:76:7e:f8:61:ea:1c:52:21:0f:bb:df
        Signature Algorithm: sha256WithRSAEncryption
        Issuer: CN=ChangeMe
        Validity
            Not Before: Jul 28 08:18:15 2021 GMT
            Not After : Jul 26 08:18:15 2031 GMT
        Subject: CN=grafanakey
        Subject Public Key Info:
            Public Key Algorithm: rsaEncryption
                RSA Public-Key: (2048 bit)
                Modulus:
                    00:cc:df:25:cc:b3:27:a8:f5:7a:e4:21:01:46:3a:
                    a7:ac:f0:dd:50:f6:aa:a6:c7:64:94:80:e5:64:36:
                    dc:0d:b3:da:78:38:52:3d:d1:ee:24:25:8f:a9:98:
                    5f:26:86:db:a9:1a:d7:05:15:8d:e2:a2:a7:28:e7:
                    61:5a:6f:f7:cf:df:ec:07:c2:aa:a8:56:78:2e:eb:
                    ef:0d:e8:b3:d6:d7:3c:d9:a6:cf:ca:27:44:8b:19:
                    f5:7f:20:be:42:6a:39:76:ec:93:99:f4:52:17:7f:
                    39:96:c3:ce:21:16:5c:d4:12:e1:14:87:a1:e5:76:
                    77:bb:d0:d8:30:77:b1:85:be:88:35:ce:3d:75:5f:
                    b2:ef:1a:6b:49:d1:f9:cd:2b:17:1e:03:22:7c:c3:
                    89:f4:92:55:dd:2e:7d:df:4f:38:64:c0:98:96:22:
                    b2:39:0b:1b:3a:ef:76:e4:e6:3a:23:1c:46:5b:c8:
                    a1:cd:ba:30:1f:09:2a:db:7e:dc:90:70:d8:e3:d1:
                    26:e0:83:d3:1e:9f:88:f3:fc:09:67:9d:49:7f:99:
                    c0:85:ab:dc:19:bb:4e:c5:88:a5:86:5b:54:57:5a:
                    dc:96:8c:c9:1d:cb:2c:7e:ec:98:07:8c:dd:5d:09:
                    ae:77:19:a3:23:c7:69:2f:5d:cb:6d:ae:73:51:f2:
                    ab:25
                Exponent: 65537 (0x10001)
        X509v3 extensions:
            X509v3 Basic Constraints: 
                CA:FALSE
            X509v3 Subject Key Identifier: 
                4B:02:CE:FC:FE:F3:A0:5B:56:B0:38:AF:ED:E9:24:CD:4F:40:D8:E5
            X509v3 Authority Key Identifier: 
                keyid:BA:5B:CC:A6:E0:EE:ED:35:17:DA:E1:A8:A0:14:22:0F:CF:0F:74:57
                DirName:/CN=ChangeMe
                serial:70:C5:86:DC:F9:05:D5:9E:D8:0A:11:56:E0:11:0F:36:A1:FD:8E:9B

            X509v3 Extended Key Usage: 
                TLS Web Client Authentication
            X509v3 Key Usage: 
                Digital Signature
    Signature Algorithm: sha256WithRSAEncryption
         a1:f1:98:fd:bc:f6:a0:05:69:d4:80:5f:67:25:19:9c:40:5d:
         ef:1a:b9:24:99:40:1a:76:40:9a:e3:67:d3:53:b3:b3:67:95:
         d8:7a:92:0e:62:aa:2f:15:55:05:f2:2c:f2:ea:af:69:b9:a1:
         85:b8:c5:9f:65:d1:65:1d:be:25:d7:0b:eb:8f:1f:74:71:dd:
         cd:51:08:45:5d:db:59:1f:54:46:b1:a7:56:c7:ce:b0:7f:0a:
         36:86:4c:d2:6e:c2:f8:e2:dd:b7:55:b6:f1:f0:c5:eb:75:f0:
         49:a5:c5:5c:e0:32:1f:cf:cb:1a:0b:7f:ce:9d:68:fb:a5:1b:
         f3:21:01:12:a5:29:ab:a4:a8:9c:01:73:ef:aa:a9:68:bf:45:
         01:00:36:6d:ab:24:8c:c6:8a:3e:b9:a9:53:84:49:fd:35:ca:
         29:47:a4:54:08:2f:da:92:00:78:c2:7b:30:f1:4e:0a:53:61:
         2c:29:42:62:af:be:7c:18:54:d9:10:97:be:0e:bc:52:9b:b4:
         ac:ff:88:e3:ca:3a:cd:4b:37:f9:15:39:9c:64:f3:ae:27:9a:
         f6:ce:4a:78:f9:ec:e7:91:f1:55:48:37:f0:75:9a:01:a3:d7:
         c1:61:5a:fe:2c:35:f7:2e:ca:e2:b2:38:2a:fd:21:96:6f:b9:
         e7:82:97:c7
-----BEGIN CERTIFICATE-----
MIIDUzCCAjugAwIBAgIRAIXTGZrbdn74YeocUiEPu98wDQYJKoZIhvcNAQELBQAw
EzERMA8GA1UEAwwIQ2hhbmdlTWUwHhcNMjEwNzI4MDgxODE1WhcNMzEwNzI2MDgx
ODE1WjAVMRMwEQYDVQQDDApncmFmYW5ha2V5MIIBIjANBgkqhkiG9w0BAQEFAAOC
AQ8AMIIBCgKCAQEAzN8lzLMnqPV65CEBRjqnrPDdUPaqpsdklIDlZDbcDbPaeDhS
PdHuJCWPqZhfJobbqRrXBRWN4qKnKOdhWm/3z9/sB8KqqFZ4LuvvDeiz1tc82abP
yidEixn1fyC+Qmo5duyTmfRSF385lsPOIRZc1BLhFIeh5XZ3u9DYMHexhb6INc49
dV+y7xprSdH5zSsXHgMifMOJ9JJV3S593084ZMCYliKyOQsbOu925OY6IxxGW8ih
zbowHwkq237ckHDY49Em4IPTHp+I8/wJZ51Jf5nAhavcGbtOxYilhltUV1rclozJ
HcssfuyYB4zdXQmudxmjI8dpL13Lba5zUfKrJQIDAQABo4GfMIGcMAkGA1UdEwQC
MAAwHQYDVR0OBBYEFEsCzvz+86BbVrA4r+3pJM1PQNjlME4GA1UdIwRHMEWAFLpb
zKbg7u01F9rhqKAUIg/PD3RXoRekFTATMREwDwYDVQQDDAhDaGFuZ2VNZYIUcMWG
3PkF1Z7YChFW4BEPNqH9jpswEwYDVR0lBAwwCgYIKwYBBQUHAwIwCwYDVR0PBAQD
AgeAMA0GCSqGSIb3DQEBCwUAA4IBAQCh8Zj9vPagBWnUgF9nJRmcQF3vGrkkmUAa
dkCa42fTU7OzZ5XYepIOYqovFVUF8izy6q9puaGFuMWfZdFlHb4l1wvrjx90cd3N
UQhFXdtZH1RGsadWx86wfwo2hkzSbsL44t23Vbbx8MXrdfBJpcVc4DIfz8saC3/O
nWj7pRvzIQESpSmrpKicAXPvqqlov0UBADZtqySMxoo+ualThEn9NcopR6RUCC/a
kgB4wnsw8U4KU2EsKUJir758GFTZEJe+DrxSm7Ss/4jjyjrNSzf5FTmcZPOuJ5r2
zkp4+eznkfFVSDfwdZoBo9fBYVr+LDX3Lsrisjgq/SGWb7nngpfH
-----END CERTIFICATE-----
