Certificate:
    Data:
        Version: 3 (0x2)
        Serial Number:
            39:c0:30:41:45:e3:b0:a7:cf:ec:7a:82:d4:02:ad:c6
        Signature Algorithm: sha256WithRSAEncryption
        Issuer: CN=ChangeMe
        Validity
            Not Before: Jul 28 08:31:08 2021 GMT
            Not After : Jul 26 08:31:08 2031 GMT
        Subject: CN=ldapkey06
        Subject Public Key Info:
            Public Key Algorithm: rsaEncryption
                RSA Public-Key: (2048 bit)
                Modulus:
                    00:ae:08:e9:17:a1:93:2f:f9:25:0f:4d:47:05:be:
                    ba:b8:74:ec:17:f8:0f:d3:de:78:6e:fb:58:45:d0:
                    1f:79:06:84:ed:ea:f5:dd:b3:25:4c:52:6f:8e:24:
                    6a:75:cf:c1:9e:ef:e6:18:be:ca:db:89:ca:a6:af:
                    ab:66:9d:08:48:f3:94:80:50:c8:74:3a:b0:10:12:
                    2d:11:38:bb:2b:17:fa:50:d6:a9:20:4e:22:1f:c4:
                    e6:9a:8c:02:85:eb:a2:5d:2d:fe:5a:3d:cf:f2:fb:
                    e7:ac:5e:0b:09:3c:d2:f5:8a:16:53:51:f2:0e:6f:
                    9f:08:f8:e1:8a:24:8a:35:a6:3f:2a:7c:84:39:55:
                    91:46:dd:d7:97:30:05:21:0a:5e:ac:01:a0:3e:f2:
                    c9:07:d6:f2:77:1b:83:17:80:86:ca:97:6f:13:71:
                    2e:94:17:d5:f7:3b:a5:81:fa:21:dc:96:c4:c8:7a:
                    54:13:ab:82:e9:48:68:ca:56:9c:ce:f1:3b:54:90:
                    14:11:3a:2f:6e:33:81:81:df:f4:4d:18:ca:32:1f:
                    3d:d0:14:69:ad:5b:7a:51:e9:4f:54:83:85:4f:16:
                    2d:bd:aa:bf:6c:19:63:11:ef:25:41:7f:ab:98:0d:
                    23:84:b7:d1:15:79:10:d4:d8:89:1e:18:eb:99:a7:
                    ec:53
                Exponent: 65537 (0x10001)
        X509v3 extensions:
            X509v3 Basic Constraints: 
                CA:FALSE
            X509v3 Subject Key Identifier: 
                A9:6C:6A:6E:CE:CD:23:D3:81:1C:10:70:F2:AE:B0:AD:0A:33:89:66
            X509v3 Authority Key Identifier: 
                keyid:BA:5B:CC:A6:E0:EE:ED:35:17:DA:E1:A8:A0:14:22:0F:CF:0F:74:57
                DirName:/CN=ChangeMe
                serial:70:C5:86:DC:F9:05:D5:9E:D8:0A:11:56:E0:11:0F:36:A1:FD:8E:9B

            X509v3 Extended Key Usage: 
                TLS Web Client Authentication
            X509v3 Key Usage: 
                Digital Signature
    Signature Algorithm: sha256WithRSAEncryption
         5f:5b:ed:02:0f:5e:0f:33:db:87:e2:b3:c6:09:e8:fe:72:f3:
         84:a9:8a:8d:ce:dc:14:55:64:8c:4d:c7:87:05:c9:b5:8a:93:
         07:99:67:2b:08:9c:55:bc:74:69:79:2b:1a:68:4b:7b:7f:42:
         ae:4f:9d:90:f7:02:fe:79:a2:89:4b:94:86:d5:4c:d5:0a:ca:
         ee:82:5a:eb:66:e9:62:80:dd:57:86:05:9c:bd:72:03:95:a7:
         5a:d9:4b:90:4c:f7:83:4b:5e:90:bf:f8:6e:c0:1a:25:51:64:
         7b:2e:41:b3:f7:a8:eb:16:10:70:a1:03:48:88:67:97:7e:8e:
         ac:92:c1:62:8c:92:c3:dd:6a:48:2b:92:e7:82:9c:1d:d9:3e:
         cf:40:c0:6d:61:98:04:16:56:72:93:e2:5e:76:d0:11:bd:5b:
         cd:66:7a:f8:36:93:cf:ac:0b:6b:0f:67:ef:71:c1:c4:9a:53:
         26:22:41:50:2a:3b:e1:b4:4c:49:8e:56:58:e1:68:d2:ed:a1:
         58:e2:8e:74:b2:78:b8:68:bd:85:a6:3d:99:2c:e1:d1:11:cb:
         e7:bd:1f:a0:f2:e8:0d:5b:37:0a:59:46:8d:54:d4:af:96:81:
         22:17:7b:ee:12:10:4a:1a:6c:9b:1e:15:dd:1f:e8:f3:54:cf:
         82:9c:88:4b
-----BEGIN CERTIFICATE-----
MIIDUTCCAjmgAwIBAgIQOcAwQUXjsKfP7HqC1AKtxjANBgkqhkiG9w0BAQsFADAT
MREwDwYDVQQDDAhDaGFuZ2VNZTAeFw0yMTA3MjgwODMxMDhaFw0zMTA3MjYwODMx
MDhaMBQxEjAQBgNVBAMMCWxkYXBrZXkwNjCCASIwDQYJKoZIhvcNAQEBBQADggEP
ADCCAQoCggEBAK4I6Rehky/5JQ9NRwW+urh07Bf4D9PeeG77WEXQH3kGhO3q9d2z
JUxSb44kanXPwZ7v5hi+ytuJyqavq2adCEjzlIBQyHQ6sBASLRE4uysX+lDWqSBO
Ih/E5pqMAoXrol0t/lo9z/L756xeCwk80vWKFlNR8g5vnwj44YokijWmPyp8hDlV
kUbd15cwBSEKXqwBoD7yyQfW8ncbgxeAhsqXbxNxLpQX1fc7pYH6IdyWxMh6VBOr
gulIaMpWnM7xO1SQFBE6L24zgYHf9E0YyjIfPdAUaa1belHpT1SDhU8WLb2qv2wZ
YxHvJUF/q5gNI4S30RV5ENTYiR4Y65mn7FMCAwEAAaOBnzCBnDAJBgNVHRMEAjAA
MB0GA1UdDgQWBBSpbGpuzs0j04EcEHDyrrCtCjOJZjBOBgNVHSMERzBFgBS6W8ym
4O7tNRfa4aigFCIPzw90V6EXpBUwEzERMA8GA1UEAwwIQ2hhbmdlTWWCFHDFhtz5
BdWe2AoRVuARDzah/Y6bMBMGA1UdJQQMMAoGCCsGAQUFBwMCMAsGA1UdDwQEAwIH
gDANBgkqhkiG9w0BAQsFAAOCAQEAX1vtAg9eDzPbh+Kzxgno/nLzhKmKjc7cFFVk
jE3HhwXJtYqTB5lnKwicVbx0aXkrGmhLe39Crk+dkPcC/nmiiUuUhtVM1QrK7oJa
62bpYoDdV4YFnL1yA5WnWtlLkEz3g0tekL/4bsAaJVFkey5Bs/eo6xYQcKEDSIhn
l36OrJLBYoySw91qSCuS54KcHdk+z0DAbWGYBBZWcpPiXnbQEb1bzWZ6+DaTz6wL
aw9n73HBxJpTJiJBUCo74bRMSY5WWOFo0u2hWOKOdLJ4uGi9haY9mSzh0RHL570f
oPLoDVs3CllGjVTUr5aBIhd77hIQShpsmx4V3R/o81TPgpyISw==
-----END CERTIFICATE-----
