Certificate:
    Data:
        Version: 3 (0x2)
        Serial Number:
            04:bf:31:6e:25:11:af:8d:7a:6d:ec:52:f0:92:f9:a5
        Signature Algorithm: sha256WithRSAEncryption
        Issuer: CN=ChangeMe
        Validity
            Not Before: Apr 21 02:16:50 2021 GMT
            Not After : Jul 25 02:16:50 2023 GMT
        Subject: CN=aa1
        Subject Public Key Info:
            Public Key Algorithm: rsaEncryption
                RSA Public-Key: (2048 bit)
                Modulus:
                    00:b1:8b:e0:06:35:b3:46:1c:ab:dd:44:10:78:aa:
                    ff:26:4d:70:14:b8:43:f3:c9:98:d6:16:64:f6:6d:
                    2e:0e:85:88:33:4f:81:87:a3:e9:b9:4f:13:84:43:
                    4b:5d:60:92:e4:38:88:77:17:d8:03:a8:56:1f:52:
                    5b:fb:fc:d9:28:80:c3:d8:a4:0f:27:44:32:f6:70:
                    5d:ab:e4:94:0c:c2:89:ad:1e:4e:88:93:2c:a9:68:
                    99:be:fa:42:47:09:e2:d2:0b:85:49:c4:f2:f5:3d:
                    93:c0:7f:88:74:7a:68:29:98:bc:d5:45:68:e0:6a:
                    ab:a9:f6:0a:5d:6f:9b:1a:ae:6f:7f:5f:d7:8a:3c:
                    06:97:9a:2a:57:07:f9:52:67:76:fe:ba:c2:91:b7:
                    77:de:db:ee:dd:c0:4a:94:a4:98:00:63:5a:de:aa:
                    2e:3f:82:2b:b3:9a:4e:9b:04:58:f5:a1:7c:f3:ec:
                    87:06:1c:bc:83:d3:b8:7c:45:79:b8:6d:c7:75:05:
                    ea:5c:5c:18:40:6d:fb:26:34:db:89:fa:e7:50:b6:
                    56:3f:3e:6a:02:39:6a:b9:a5:fa:55:35:80:3f:e9:
                    e2:96:21:c7:b0:11:75:c4:a6:28:06:2f:16:f7:c8:
                    14:e9:45:28:3e:3c:0a:2d:27:bf:dd:53:dd:91:0c:
                    31:85
                Exponent: 65537 (0x10001)
        X509v3 extensions:
            X509v3 Basic Constraints: 
                CA:FALSE
            X509v3 Subject Key Identifier: 
                14:05:B6:2D:80:97:9D:49:37:49:5D:5A:1E:B9:FF:3C:22:A0:50:DD
            X509v3 Authority Key Identifier: 
                keyid:89:E6:26:3E:D8:5A:84:3A:46:28:C7:73:BB:03:36:59:22:0B:69:AC
                DirName:/CN=ChangeMe
                serial:45:A9:61:A0:5C:85:EA:AE:5C:45:58:7F:74:61:DC:FE:DD:5E:40:CD

            X509v3 Extended Key Usage: 
                TLS Web Client Authentication
            X509v3 Key Usage: 
                Digital Signature
    Signature Algorithm: sha256WithRSAEncryption
         1e:be:63:d3:bc:ab:ed:e4:0d:b0:a9:6a:7d:e6:ae:ec:ac:93:
         76:68:a6:eb:18:71:2c:d2:48:35:4b:e8:20:d3:bf:d5:04:e1:
         f9:c6:82:14:a5:01:dd:e2:ff:43:81:79:28:da:53:c7:a4:09:
         49:5b:06:c3:78:f5:54:76:17:28:ce:d2:da:b9:c4:3a:73:75:
         f4:0f:75:24:da:49:f0:cd:eb:b6:69:d1:22:aa:fc:e8:8a:6a:
         ab:1b:37:ec:02:04:60:b8:1f:08:3b:c1:fa:84:82:08:0a:9d:
         92:ae:e5:f2:b8:10:9b:61:d7:cb:df:60:e7:f2:5b:4a:70:49:
         6e:4e:7c:a2:93:44:d6:06:9f:61:87:97:40:08:8f:15:dc:9b:
         4e:5e:53:bb:a9:c0:d6:a1:b7:b3:d7:82:d1:ed:a7:be:7c:47:
         14:d1:bc:b0:04:dd:d5:43:3a:5b:e3:c0:5d:74:83:fe:a4:83:
         7f:cf:f2:b8:70:34:62:69:75:6b:e9:98:ad:6d:1c:1d:63:92:
         53:7f:de:ad:59:af:72:f1:74:b3:c1:98:2d:37:5d:f3:72:fc:
         6b:13:e0:b1:a0:eb:e1:e0:1a:38:47:da:a9:17:9c:d8:52:00:
         1f:f2:6d:2b:31:e0:a0:2a:f3:b8:7e:bb:ba:bc:4d:9e:ba:a9:
         b8:6a:33:78
-----BEGIN CERTIFICATE-----
MIIDSzCCAjOgAwIBAgIQBL8xbiURr416bexS8JL5pTANBgkqhkiG9w0BAQsFADAT
MREwDwYDVQQDDAhDaGFuZ2VNZTAeFw0yMTA0MjEwMjE2NTBaFw0yMzA3MjUwMjE2
NTBaMA4xDDAKBgNVBAMMA2FhMTCCASIwDQYJKoZIhvcNAQEBBQADggEPADCCAQoC
ggEBALGL4AY1s0Ycq91EEHiq/yZNcBS4Q/PJmNYWZPZtLg6FiDNPgYej6blPE4RD
S11gkuQ4iHcX2AOoVh9SW/v82SiAw9ikDydEMvZwXavklAzCia0eToiTLKlomb76
QkcJ4tILhUnE8vU9k8B/iHR6aCmYvNVFaOBqq6n2Cl1vmxqub39f14o8BpeaKlcH
+VJndv66wpG3d97b7t3ASpSkmABjWt6qLj+CK7OaTpsEWPWhfPPshwYcvIPTuHxF
ebhtx3UF6lxcGEBt+yY024n651C2Vj8+agI5arml+lU1gD/p4pYhx7ARdcSmKAYv
FvfIFOlFKD48Ci0nv91T3ZEMMYUCAwEAAaOBnzCBnDAJBgNVHRMEAjAAMB0GA1Ud
DgQWBBQUBbYtgJedSTdJXVoeuf88IqBQ3TBOBgNVHSMERzBFgBSJ5iY+2FqEOkYo
x3O7AzZZIgtprKEXpBUwEzERMA8GA1UEAwwIQ2hhbmdlTWWCFEWpYaBchequXEVY
f3Rh3P7dXkDNMBMGA1UdJQQMMAoGCCsGAQUFBwMCMAsGA1UdDwQEAwIHgDANBgkq
hkiG9w0BAQsFAAOCAQEAHr5j07yr7eQNsKlqfeau7KyTdmim6xhxLNJINUvoINO/
1QTh+caCFKUB3eL/Q4F5KNpTx6QJSVsGw3j1VHYXKM7S2rnEOnN19A91JNpJ8M3r
tmnRIqr86Ipqqxs37AIEYLgfCDvB+oSCCAqdkq7l8rgQm2HXy99g5/JbSnBJbk58
opNE1gafYYeXQAiPFdybTl5Tu6nA1qG3s9eC0e2nvnxHFNG8sATd1UM6W+PAXXSD
/qSDf8/yuHA0Yml1a+mYrW0cHWOSU3/erVmvcvF0s8GYLTdd83L8axPgsaDr4eAa
OEfaqRec2FIAH/JtKzHgoCrzuH67urxNnrqpuGozeA==
-----END CERTIFICATE-----
