Certificate:
    Data:
        Version: 3 (0x2)
        Serial Number:
            37:2e:24:7d:1c:c8:e7:cf:e3:1c:71:97:c3:fe:d3:45
    Signature Algorithm: sha256WithRSAEncryption
        Issuer: CN=ChangeMe
        Validity
            Not Before: Oct 18 08:12:56 2021 GMT
            Not After : Jan 21 08:12:56 2024 GMT
        Subject: CN=hm-76
        Subject Public Key Info:
            Public Key Algorithm: rsaEncryption
                Public-Key: (2048 bit)
                Modulus:
                    00:cf:70:09:ef:ce:46:5c:f0:de:f0:59:92:f3:1d:
                    ef:4e:b7:75:b4:0d:3b:55:86:6e:ea:77:b2:ce:02:
                    dd:6d:25:75:2e:a5:3a:2d:a7:5a:13:9b:a0:2e:84:
                    55:c0:39:88:3c:8d:99:de:8e:f1:38:b9:d9:53:24:
                    ad:ee:2a:92:c3:40:97:e3:7a:d6:8e:a9:24:9e:72:
                    1c:3c:a0:2d:cb:c9:07:b7:08:05:43:30:f8:ef:c3:
                    1e:25:8a:2a:d9:ea:a2:d2:50:2e:bb:ed:12:f3:74:
                    11:7f:0b:01:d3:66:76:c1:0c:cd:99:eb:bd:a7:a5:
                    c9:01:df:c5:6f:41:85:23:9e:80:ff:e2:e6:7a:5c:
                    4b:5e:c8:6c:3b:42:ce:36:53:b1:71:a0:5e:1e:33:
                    bb:0d:aa:19:3e:67:24:52:0f:9f:37:e1:4e:20:87:
                    e5:83:02:b1:31:6f:fd:c5:a8:28:63:14:e1:b3:8f:
                    d7:44:17:16:99:61:fe:df:28:06:83:bc:b0:09:67:
                    4e:b7:ff:93:21:e2:60:2f:ee:18:14:c0:06:93:0b:
                    35:5c:33:56:3f:20:39:db:40:6f:96:b6:d8:54:71:
                    6f:64:be:66:38:34:0a:57:01:fa:d3:cd:18:66:53:
                    02:25:75:5a:a1:d5:fb:8e:03:3f:8b:6c:27:c7:35:
                    97:09
                Exponent: 65537 (0x10001)
        X509v3 extensions:
            X509v3 Basic Constraints: 
                CA:FALSE
            X509v3 Subject Key Identifier: 
                D9:7D:B3:CE:0E:F5:AE:4F:B9:5D:48:4D:79:29:BF:60:32:91:E8:96
            X509v3 Authority Key Identifier: 
                keyid:89:E6:26:3E:D8:5A:84:3A:46:28:C7:73:BB:03:36:59:22:0B:69:AC
                DirName:/CN=ChangeMe
                serial:45:A9:61:A0:5C:85:EA:AE:5C:45:58:7F:74:61:DC:FE:DD:5E:40:CD

            X509v3 Extended Key Usage: 
                TLS Web Client Authentication
            X509v3 Key Usage: 
                Digital Signature
    Signature Algorithm: sha256WithRSAEncryption
         7c:52:ab:b0:2e:e2:d6:23:9c:83:ee:13:3f:82:86:86:b3:b8:
         aa:6f:63:95:80:fd:67:9a:72:81:27:b9:7f:13:1a:d4:23:e1:
         95:43:61:03:00:52:74:98:f7:d5:2f:84:8d:a9:f7:7f:b7:8c:
         43:e7:0d:15:65:22:5c:37:1b:26:ad:a8:c8:81:a1:49:8e:d1:
         ab:c5:2f:01:6e:7f:c0:69:ca:e7:b2:78:5d:b3:f1:48:18:b1:
         c1:f0:6f:3b:21:4e:28:ec:94:aa:af:79:de:0d:03:50:4b:40:
         35:c0:6b:3c:36:15:e2:af:43:19:8e:5b:2b:51:9b:f3:c3:8a:
         48:f2:94:99:d6:fa:07:b3:f7:b6:94:7f:ea:1c:12:9e:c6:9f:
         aa:fa:2a:9b:f8:8d:f9:fd:11:0f:1f:e8:03:65:2f:b3:cb:11:
         8f:fc:3f:07:ba:6d:0f:b6:e9:b3:a9:6b:36:c8:1a:eb:f8:df:
         cf:bc:a3:83:13:9c:61:8d:f5:16:36:78:d3:94:43:55:1e:48:
         15:9c:37:4f:46:05:3d:3a:a6:df:6e:ca:d2:51:75:36:e3:06:
         9c:ec:43:65:50:3a:24:14:7b:51:32:2a:51:2c:e2:a9:55:3e:
         d5:01:64:33:16:bd:53:bf:1e:14:c9:6d:42:cc:cb:ee:da:28:
         26:6c:66:66
-----BEGIN CERTIFICATE-----
MIIDTTCCAjWgAwIBAgIQNy4kfRzI58/jHHGXw/7TRTANBgkqhkiG9w0BAQsFADAT
MREwDwYDVQQDDAhDaGFuZ2VNZTAeFw0yMTEwMTgwODEyNTZaFw0yNDAxMjEwODEy
NTZaMBAxDjAMBgNVBAMMBWhtLTc2MIIBIjANBgkqhkiG9w0BAQEFAAOCAQ8AMIIB
CgKCAQEAz3AJ785GXPDe8FmS8x3vTrd1tA07VYZu6neyzgLdbSV1LqU6LadaE5ug
LoRVwDmIPI2Z3o7xOLnZUySt7iqSw0CX43rWjqkknnIcPKAty8kHtwgFQzD478Me
JYoq2eqi0lAuu+0S83QRfwsB02Z2wQzNmeu9p6XJAd/Fb0GFI56A/+LmelxLXshs
O0LONlOxcaBeHjO7DaoZPmckUg+fN+FOIIflgwKxMW/9xagoYxThs4/XRBcWmWH+
3ygGg7ywCWdOt/+TIeJgL+4YFMAGkws1XDNWPyA520BvlrbYVHFvZL5mODQKVwH6
080YZlMCJXVaodX7jgM/i2wnxzWXCQIDAQABo4GfMIGcMAkGA1UdEwQCMAAwHQYD
VR0OBBYEFNl9s84O9a5PuV1ITXkpv2AykeiWME4GA1UdIwRHMEWAFInmJj7YWoQ6
RijHc7sDNlkiC2msoRekFTATMREwDwYDVQQDDAhDaGFuZ2VNZYIURalhoFyF6q5c
RVh/dGHc/t1eQM0wEwYDVR0lBAwwCgYIKwYBBQUHAwIwCwYDVR0PBAQDAgeAMA0G
CSqGSIb3DQEBCwUAA4IBAQB8UquwLuLWI5yD7hM/goaGs7iqb2OVgP1nmnKBJ7l/
ExrUI+GVQ2EDAFJ0mPfVL4SNqfd/t4xD5w0VZSJcNxsmrajIgaFJjtGrxS8Bbn/A
acrnsnhds/FIGLHB8G87IU4o7JSqr3neDQNQS0A1wGs8NhXir0MZjlsrUZvzw4pI
8pSZ1voHs/e2lH/qHBKexp+q+iqb+I35/REPH+gDZS+zyxGP/D8Hum0PtumzqWs2
yBrr+N/PvKODE5xhjfUWNnjTlENVHkgVnDdPRgU9OqbfbsrSUXU24wac7ENlUDok
FHtRMipRLOKpVT7VAWQzFr1Tvx4UyW1CzMvu2igmbGZm
-----END CERTIFICATE-----
