Certificate:
    Data:
        Version: 3 (0x2)
        Serial Number:
            37:3b:13:7d:ab:f7:56:68:dd:f2:42:4b:a3:b7:55:f2
        Signature Algorithm: sha256WithRSAEncryption
        Issuer: CN=ChangeMe
        Validity
            Not Before: Apr 21 00:49:30 2021 GMT
            Not After : Jul 25 00:49:30 2023 GMT
        Subject: CN=nnn
        Subject Public Key Info:
            Public Key Algorithm: rsaEncryption
                RSA Public-Key: (2048 bit)
                Modulus:
                    00:cb:d2:28:8d:20:e1:5e:1d:c3:83:a1:e9:a5:85:
                    91:d6:4e:51:93:94:d6:e0:48:a4:7e:85:4d:e0:62:
                    18:5e:a5:e6:92:fc:9b:1b:60:57:8c:e4:f6:f4:49:
                    96:9f:e4:16:21:5c:9e:60:96:bb:68:9e:e0:82:c3:
                    f4:4b:b9:b9:83:c1:4f:04:a4:ad:6b:f0:9d:43:0e:
                    09:01:e8:f6:87:4b:a8:c8:6d:3b:fd:66:19:81:92:
                    b7:86:e6:32:2f:74:0a:29:7e:69:94:50:b9:af:23:
                    73:97:0e:51:49:af:7b:9f:53:e7:b8:99:1c:f1:b9:
                    35:40:c2:67:62:16:43:89:56:af:92:c9:b4:4f:b6:
                    37:0a:e1:f3:a1:fb:8b:fd:39:86:92:fa:51:d2:ba:
                    f4:3f:ec:b1:5f:34:97:36:c4:d4:66:13:b0:0c:a8:
                    f6:6b:f2:5f:04:2d:35:52:62:ea:71:f7:eb:20:d1:
                    fa:85:d7:6a:fa:4c:d9:20:39:8a:f6:ba:1e:17:db:
                    1b:86:29:37:36:c5:d1:28:fd:7c:62:50:1b:24:2c:
                    69:3e:70:0b:18:64:31:9b:aa:a1:c6:b3:0b:23:52:
                    48:94:80:44:2f:2b:69:c9:24:8b:da:8e:6b:9c:38:
                    89:7d:8a:71:14:46:61:15:3b:2a:a6:38:76:7e:b1:
                    8b:4b
                Exponent: 65537 (0x10001)
        X509v3 extensions:
            X509v3 Basic Constraints: 
                CA:FALSE
            X509v3 Subject Key Identifier: 
                AD:76:3A:98:1A:5C:6E:C1:E3:B8:A8:6E:5D:A4:76:3D:F8:98:4F:91
            X509v3 Authority Key Identifier: 
                keyid:89:E6:26:3E:D8:5A:84:3A:46:28:C7:73:BB:03:36:59:22:0B:69:AC
                DirName:/CN=ChangeMe
                serial:45:A9:61:A0:5C:85:EA:AE:5C:45:58:7F:74:61:DC:FE:DD:5E:40:CD

            X509v3 Extended Key Usage: 
                TLS Web Client Authentication
            X509v3 Key Usage: 
                Digital Signature
    Signature Algorithm: sha256WithRSAEncryption
         89:51:55:55:c1:f6:95:69:41:6a:88:f3:5f:5c:31:34:58:17:
         ac:3a:f1:3a:2f:ff:0f:7d:57:bd:0c:20:65:c6:97:1e:18:9c:
         01:d9:10:45:59:ea:c7:11:26:da:7f:20:25:38:0d:d3:76:f8:
         1a:4f:85:6b:ba:94:d5:14:ab:7c:f9:75:dc:48:c3:53:8d:28:
         50:9d:db:e6:a0:06:89:ae:33:37:07:7b:ac:b4:f2:d9:2c:00:
         f8:3a:21:41:41:cb:56:ac:86:97:d7:4d:f5:2f:1a:ba:ec:07:
         a7:37:45:19:80:7c:a7:28:c7:6d:4f:82:d6:0f:d7:0c:4d:38:
         6d:47:70:b9:7e:6c:56:93:57:fa:f4:27:3d:2c:55:b8:61:3c:
         50:4b:4b:49:cf:87:e7:1b:6c:9c:f4:f2:90:e3:cf:0a:8f:aa:
         9e:d1:92:b1:ac:19:09:ce:8b:38:46:a4:5d:96:b2:ff:f4:74:
         54:59:05:9b:65:cc:6b:ad:de:0d:b6:9e:c7:e6:58:86:ca:bb:
         16:14:e9:e1:d4:25:d6:3f:70:fd:75:12:51:4e:d8:83:12:06:
         3b:ce:95:56:01:65:2f:c8:d7:bf:bc:05:4e:64:9b:2d:7c:78:
         57:9c:7e:30:5f:b8:85:38:3d:36:30:8e:0f:06:cf:e3:35:a9:
         f3:9f:b3:90
-----BEGIN CERTIFICATE-----
MIIDSzCCAjOgAwIBAgIQNzsTfav3Vmjd8kJLo7dV8jANBgkqhkiG9w0BAQsFADAT
MREwDwYDVQQDDAhDaGFuZ2VNZTAeFw0yMTA0MjEwMDQ5MzBaFw0yMzA3MjUwMDQ5
MzBaMA4xDDAKBgNVBAMMA25ubjCCASIwDQYJKoZIhvcNAQEBBQADggEPADCCAQoC
ggEBAMvSKI0g4V4dw4Oh6aWFkdZOUZOU1uBIpH6FTeBiGF6l5pL8mxtgV4zk9vRJ
lp/kFiFcnmCWu2ie4ILD9Eu5uYPBTwSkrWvwnUMOCQHo9odLqMhtO/1mGYGSt4bm
Mi90Cil+aZRQua8jc5cOUUmve59T57iZHPG5NUDCZ2IWQ4lWr5LJtE+2Nwrh86H7
i/05hpL6UdK69D/ssV80lzbE1GYTsAyo9mvyXwQtNVJi6nH36yDR+oXXavpM2SA5
iva6HhfbG4YpNzbF0Sj9fGJQGyQsaT5wCxhkMZuqocazCyNSSJSARC8rackki9qO
a5w4iX2KcRRGYRU7KqY4dn6xi0sCAwEAAaOBnzCBnDAJBgNVHRMEAjAAMB0GA1Ud
DgQWBBStdjqYGlxuweO4qG5dpHY9+JhPkTBOBgNVHSMERzBFgBSJ5iY+2FqEOkYo
x3O7AzZZIgtprKEXpBUwEzERMA8GA1UEAwwIQ2hhbmdlTWWCFEWpYaBchequXEVY
f3Rh3P7dXkDNMBMGA1UdJQQMMAoGCCsGAQUFBwMCMAsGA1UdDwQEAwIHgDANBgkq
hkiG9w0BAQsFAAOCAQEAiVFVVcH2lWlBaojzX1wxNFgXrDrxOi//D31XvQwgZcaX
HhicAdkQRVnqxxEm2n8gJTgN03b4Gk+Fa7qU1RSrfPl13EjDU40oUJ3b5qAGia4z
Nwd7rLTy2SwA+DohQUHLVqyGl9dN9S8auuwHpzdFGYB8pyjHbU+C1g/XDE04bUdw
uX5sVpNX+vQnPSxVuGE8UEtLSc+H5xtsnPTykOPPCo+qntGSsawZCc6LOEakXZay
//R0VFkFm2XMa63eDbaex+ZYhsq7FhTp4dQl1j9w/XUSUU7YgxIGO86VVgFlL8jX
v7wFTmSbLXx4V5x+MF+4hTg9NjCODwbP4zWp85+zkA==
-----END CERTIFICATE-----
