Certificate:
    Data:
        Version: 3 (0x2)
        Serial Number:
            38:0c:95:7b:fa:0e:da:20:15:86:49:51:67:5e:53:58
    Signature Algorithm: sha256WithRSAEncryption
        Issuer: CN=ChangeMe
        Validity
            Not Before: Oct 18 07:58:44 2021 GMT
            Not After : Jan 21 07:58:44 2024 GMT
        Subject: CN=hm-centervpn
        Subject Public Key Info:
            Public Key Algorithm: rsaEncryption
                Public-Key: (2048 bit)
                Modulus:
                    00:df:cb:10:ce:dd:4c:60:43:88:20:05:c5:19:e8:
                    c6:01:2e:1d:87:41:e4:63:29:86:4d:40:f2:40:6c:
                    ea:24:56:4f:0d:15:bd:8c:82:bb:e7:1f:f3:0d:3e:
                    c3:5f:1d:55:ec:e1:77:7a:59:64:03:09:2b:6d:2f:
                    10:35:32:70:9e:d8:fc:11:f2:70:bf:2c:2f:98:24:
                    da:98:39:ef:01:07:25:8e:31:e5:15:a7:87:68:b3:
                    6b:5f:a0:af:81:a7:a2:2d:9e:30:17:d2:d3:6e:a8:
                    ff:d2:7e:9a:f6:c2:f0:53:af:c0:ac:03:98:a6:98:
                    9d:11:a9:1b:60:dd:86:70:a3:dd:8d:1d:b3:c2:9a:
                    1c:c8:b0:ce:9b:11:ab:78:3d:38:1a:8b:22:6b:9f:
                    48:e2:2f:72:d9:4b:11:df:1b:c7:13:eb:05:a6:95:
                    48:ce:95:58:55:57:9a:50:c4:77:48:41:b1:88:7f:
                    99:3d:c1:b2:ea:d6:27:37:a0:5f:5e:47:0b:d4:79:
                    95:cb:a6:fa:78:95:87:f2:8f:f0:95:1d:38:82:82:
                    fc:7d:f6:53:98:74:7d:70:9c:a9:4b:4a:98:85:db:
                    63:1b:22:ab:a3:3f:ad:29:4d:fc:ca:e5:f0:e7:cf:
                    7d:f0:3f:e9:34:09:9e:a2:14:6d:42:eb:ab:1b:64:
                    91:ff
                Exponent: 65537 (0x10001)
        X509v3 extensions:
            X509v3 Basic Constraints: 
                CA:FALSE
            X509v3 Subject Key Identifier: 
                75:5A:10:FF:92:00:E8:E5:53:CD:B6:2B:41:55:15:57:1F:C2:35:FA
            X509v3 Authority Key Identifier: 
                keyid:89:E6:26:3E:D8:5A:84:3A:46:28:C7:73:BB:03:36:59:22:0B:69:AC
                DirName:/CN=ChangeMe
                serial:45:A9:61:A0:5C:85:EA:AE:5C:45:58:7F:74:61:DC:FE:DD:5E:40:CD

            X509v3 Extended Key Usage: 
                TLS Web Client Authentication
            X509v3 Key Usage: 
                Digital Signature
    Signature Algorithm: sha256WithRSAEncryption
         22:56:eb:c6:4d:8d:5c:fc:6f:4a:ca:51:af:03:26:3d:fc:98:
         89:4e:52:bd:83:e8:b3:07:3e:47:23:d7:e6:85:5d:84:40:9f:
         b3:c2:19:df:42:e0:4a:c4:fd:41:da:84:0d:27:34:5f:ee:ec:
         9b:47:98:1f:5c:0c:23:e0:10:89:fd:bc:3b:37:05:99:e5:18:
         a2:68:08:cb:36:a5:98:f6:f4:18:75:8f:40:bc:b5:49:41:d0:
         af:25:37:0b:ca:0d:33:44:88:8b:9a:e1:73:c2:16:c2:06:70:
         cf:36:1f:94:a3:7e:34:46:dc:07:a9:dd:57:61:23:e7:01:cc:
         2c:fe:02:20:49:18:71:f6:d9:88:b0:00:07:94:ed:30:6b:e1:
         e1:95:8f:60:d8:33:dc:27:e8:ea:83:a7:c6:54:45:ad:ce:9a:
         b4:1d:e0:c8:f0:ee:92:ef:96:cb:08:e4:35:bf:45:13:28:9e:
         11:3a:49:8d:ec:6a:60:00:24:92:ca:1f:e9:a8:3c:c9:16:15:
         9c:96:15:f7:f5:92:b6:c3:0d:42:21:49:de:c3:50:d3:ef:b2:
         fd:62:db:34:7a:76:fe:02:48:98:0b:7b:40:4b:c3:39:9a:d0:
         3b:b8:f5:22:19:f8:6d:f4:7a:3f:55:8b:c8:e4:b0:8c:56:07:
         69:60:7d:7b
-----BEGIN CERTIFICATE-----
MIIDVDCCAjygAwIBAgIQOAyVe/oO2iAVhklRZ15TWDANBgkqhkiG9w0BAQsFADAT
MREwDwYDVQQDDAhDaGFuZ2VNZTAeFw0yMTEwMTgwNzU4NDRaFw0yNDAxMjEwNzU4
NDRaMBcxFTATBgNVBAMMDGhtLWNlbnRlcnZwbjCCASIwDQYJKoZIhvcNAQEBBQAD
ggEPADCCAQoCggEBAN/LEM7dTGBDiCAFxRnoxgEuHYdB5GMphk1A8kBs6iRWTw0V
vYyCu+cf8w0+w18dVezhd3pZZAMJK20vEDUycJ7Y/BHycL8sL5gk2pg57wEHJY4x
5RWnh2iza1+gr4Gnoi2eMBfS026o/9J+mvbC8FOvwKwDmKaYnRGpG2DdhnCj3Y0d
s8KaHMiwzpsRq3g9OBqLImufSOIvctlLEd8bxxPrBaaVSM6VWFVXmlDEd0hBsYh/
mT3BsurWJzegX15HC9R5lcum+niVh/KP8JUdOIKC/H32U5h0fXCcqUtKmIXbYxsi
q6M/rSlN/Mrl8OfPffA/6TQJnqIUbULrqxtkkf8CAwEAAaOBnzCBnDAJBgNVHRME
AjAAMB0GA1UdDgQWBBR1WhD/kgDo5VPNtitBVRVXH8I1+jBOBgNVHSMERzBFgBSJ
5iY+2FqEOkYox3O7AzZZIgtprKEXpBUwEzERMA8GA1UEAwwIQ2hhbmdlTWWCFEWp
YaBchequXEVYf3Rh3P7dXkDNMBMGA1UdJQQMMAoGCCsGAQUFBwMCMAsGA1UdDwQE
AwIHgDANBgkqhkiG9w0BAQsFAAOCAQEAIlbrxk2NXPxvSspRrwMmPfyYiU5SvYPo
swc+RyPX5oVdhECfs8IZ30LgSsT9QdqEDSc0X+7sm0eYH1wMI+AQif28OzcFmeUY
omgIyzalmPb0GHWPQLy1SUHQryU3C8oNM0SIi5rhc8IWwgZwzzYflKN+NEbcB6nd
V2Ej5wHMLP4CIEkYcfbZiLAAB5TtMGvh4ZWPYNgz3Cfo6oOnxlRFrc6atB3gyPDu
ku+WywjkNb9FEyieETpJjexqYAAkksof6ag8yRYVnJYV9/WStsMNQiFJ3sNQ0++y
/WLbNHp2/gJImAt7QEvDOZrQO7j1Ihn4bfR6P1WLyOSwjFYHaWB9ew==
-----END CERTIFICATE-----
