Certificate:
    Data:
        Version: 3 (0x2)
        Serial Number:
            3d:2f:64:69:19:2a:8c:57:f6:1b:ea:96:4c:a0:fb:61
        Signature Algorithm: sha256WithRSAEncryption
        Issuer: CN=ChangeMe
        Validity
            Not Before: Apr 20 01:59:32 2021 GMT
            Not After : Jul 24 01:59:32 2023 GMT
        Subject: CN=ChangeMe
        Subject Public Key Info:
            Public Key Algorithm: rsaEncryption
                RSA Public-Key: (2048 bit)
                Modulus:
                    00:bf:4d:ca:eb:c3:52:e2:1d:25:9c:32:df:55:85:
                    41:3d:4b:98:ac:6e:2e:fa:58:fb:ee:0c:4d:10:96:
                    ac:2b:89:a9:f6:b1:71:42:50:f6:56:ea:d2:cb:56:
                    dc:9e:be:a8:89:d0:d5:12:95:c4:af:51:41:88:be:
                    b6:30:cd:90:0d:ef:fb:2a:21:54:b4:19:72:0e:2b:
                    61:2b:ea:99:d6:cf:68:a7:b3:9d:59:ee:03:15:cd:
                    7f:c9:9b:62:3f:32:5e:7d:61:11:ef:a9:e9:9b:36:
                    39:7d:be:a5:e3:19:ed:92:e6:4a:2c:c4:03:07:0a:
                    22:29:e5:a1:f0:c8:c9:67:36:7c:70:62:26:95:df:
                    ca:89:e2:09:b6:a3:5b:b3:3d:20:6b:9a:e9:78:1b:
                    e2:eb:8d:fe:56:14:9a:61:bd:30:e1:64:d5:41:8b:
                    25:49:cf:e0:a9:79:4c:ec:f8:da:7f:dd:f2:cb:68:
                    21:33:18:8f:01:d1:da:24:fb:00:58:67:cf:f5:c3:
                    f8:0c:29:91:19:66:4d:84:16:53:37:92:98:72:a6:
                    e7:8a:39:26:79:02:48:e6:c9:13:16:66:82:32:28:
                    b3:f2:14:d0:40:0d:70:db:e5:d4:83:e6:ec:72:39:
                    44:c2:34:8a:ef:9e:83:91:8c:0a:b4:c0:06:0c:2a:
                    df:a9
                Exponent: 65537 (0x10001)
        X509v3 extensions:
            X509v3 Basic Constraints: 
                CA:FALSE
            X509v3 Subject Key Identifier: 
                B9:11:0C:43:D9:76:D8:D6:01:21:09:C1:19:77:BF:E2:D1:22:87:07
            X509v3 Authority Key Identifier: 
                keyid:89:E6:26:3E:D8:5A:84:3A:46:28:C7:73:BB:03:36:59:22:0B:69:AC
                DirName:/CN=ChangeMe
                serial:45:A9:61:A0:5C:85:EA:AE:5C:45:58:7F:74:61:DC:FE:DD:5E:40:CD

            X509v3 Extended Key Usage: 
                TLS Web Server Authentication
            X509v3 Key Usage: 
                Digital Signature, Key Encipherment
            X509v3 Subject Alternative Name: 
                DNS:ChangeMe
    Signature Algorithm: sha256WithRSAEncryption
         7f:8b:f9:3e:5a:78:87:e6:15:31:56:53:ee:90:f7:13:a2:fb:
         cb:79:56:47:60:46:44:ee:4c:cb:a0:a9:cc:7e:e2:93:55:67:
         52:89:87:66:d2:2f:41:99:c8:fb:13:01:9e:4a:6f:f3:e2:6f:
         07:1c:9f:01:de:21:df:80:c7:1a:22:cd:93:d2:60:ea:15:28:
         cb:31:ac:c1:4c:cb:86:84:d0:c2:64:67:f3:36:5f:29:b3:d2:
         31:7e:4e:2a:bf:16:7d:a3:05:a2:8c:8b:bc:c1:f1:3c:ca:b2:
         64:a5:3d:5b:0a:33:4d:f2:99:47:2a:28:9e:48:3f:84:bb:2b:
         c4:d5:65:9d:c7:fd:41:31:62:26:6b:b8:cb:c7:10:cf:9d:87:
         85:e9:87:1b:63:78:7a:34:be:31:63:15:20:c1:34:83:b0:45:
         04:d9:4c:d0:1e:cc:67:44:28:c1:64:ae:e3:eb:40:c9:d8:2a:
         a2:c1:e1:65:4d:10:3c:29:3f:ea:1b:4a:73:24:bb:ae:a0:d5:
         8f:c6:e6:8e:01:44:36:06:51:2f:ef:ba:48:20:5d:9d:1b:77:
         df:e1:4d:e2:62:4d:82:77:b4:b3:ad:6a:33:36:9b:74:34:b2:
         b1:c9:0a:e3:f3:a0:f7:61:66:fe:dc:bc:b4:c6:cb:ba:9b:b1:
         2c:6d:35:8b
-----BEGIN CERTIFICATE-----
MIIDZTCCAk2gAwIBAgIQPS9kaRkqjFf2G+qWTKD7YTANBgkqhkiG9w0BAQsFADAT
MREwDwYDVQQDDAhDaGFuZ2VNZTAeFw0yMTA0MjAwMTU5MzJaFw0yMzA3MjQwMTU5
MzJaMBMxETAPBgNVBAMMCENoYW5nZU1lMIIBIjANBgkqhkiG9w0BAQEFAAOCAQ8A
MIIBCgKCAQEAv03K68NS4h0lnDLfVYVBPUuYrG4u+lj77gxNEJasK4mp9rFxQlD2
VurSy1bcnr6oidDVEpXEr1FBiL62MM2QDe/7KiFUtBlyDithK+qZ1s9op7OdWe4D
Fc1/yZtiPzJefWER76npmzY5fb6l4xntkuZKLMQDBwoiKeWh8MjJZzZ8cGImld/K
ieIJtqNbsz0ga5rpeBvi643+VhSaYb0w4WTVQYslSc/gqXlM7Pjaf93yy2ghMxiP
AdHaJPsAWGfP9cP4DCmRGWZNhBZTN5KYcqbnijkmeQJI5skTFmaCMiiz8hTQQA1w
2+XUg+bscjlEwjSK756DkYwKtMAGDCrfqQIDAQABo4G0MIGxMAkGA1UdEwQCMAAw
HQYDVR0OBBYEFLkRDEPZdtjWASEJwRl3v+LRIocHME4GA1UdIwRHMEWAFInmJj7Y
WoQ6RijHc7sDNlkiC2msoRekFTATMREwDwYDVQQDDAhDaGFuZ2VNZYIURalhoFyF
6q5cRVh/dGHc/t1eQM0wEwYDVR0lBAwwCgYIKwYBBQUHAwEwCwYDVR0PBAQDAgWg
MBMGA1UdEQQMMAqCCENoYW5nZU1lMA0GCSqGSIb3DQEBCwUAA4IBAQB/i/k+WniH
5hUxVlPukPcTovvLeVZHYEZE7kzLoKnMfuKTVWdSiYdm0i9Bmcj7EwGeSm/z4m8H
HJ8B3iHfgMcaIs2T0mDqFSjLMazBTMuGhNDCZGfzNl8ps9Ixfk4qvxZ9owWijIu8
wfE8yrJkpT1bCjNN8plHKiieSD+EuyvE1WWdx/1BMWIma7jLxxDPnYeF6YcbY3h6
NL4xYxUgwTSDsEUE2UzQHsxnRCjBZK7j60DJ2CqiweFlTRA8KT/qG0pzJLuuoNWP
xuaOAUQ2BlEv77pIIF2dG3ff4U3iYk2Cd7SzrWozNpt0NLKxyQrj86D3YWb+3Ly0
xsu6m7EsbTWL
-----END CERTIFICATE-----
