Certificate:
    Data:
        Version: 3 (0x2)
        Serial Number:
            48:16:c3:1e:f2:91:54:df:af:1f:84:20:f7:8d:d0:4b
        Signature Algorithm: sha256WithRSAEncryption
        Issuer: CN=ChangeMe
        Validity
            Not Before: Apr 20 02:32:26 2021 GMT
            Not After : Jul 24 02:32:26 2023 GMT
        Subject: CN=test
        Subject Public Key Info:
            Public Key Algorithm: rsaEncryption
                RSA Public-Key: (2048 bit)
                Modulus:
                    00:a2:e5:02:e6:82:36:9f:10:3c:ba:fe:a6:88:da:
                    df:7c:10:e1:99:9f:0d:e3:bc:b7:71:6e:e6:1d:60:
                    6c:22:50:89:f6:e6:69:63:bb:44:9e:16:8d:af:8d:
                    9c:09:2d:77:61:e1:81:94:8b:b4:d2:af:56:47:8e:
                    22:8f:8d:58:c3:87:e1:4c:91:e3:1f:51:0e:00:24:
                    cf:8b:a4:90:3f:4a:66:ba:f9:dd:b9:74:98:a4:71:
                    27:7f:cd:b2:e0:ff:e7:df:20:81:8c:67:04:0e:e1:
                    44:5d:e5:63:9c:6c:c1:7c:4a:ad:b7:14:cd:16:76:
                    60:f0:1b:2b:a4:d1:f6:14:5c:e1:8b:19:94:63:1d:
                    eb:89:d7:de:2f:e4:17:c0:00:92:36:7e:2c:63:14:
                    03:6a:3d:c3:68:1f:7b:d0:74:97:ff:d0:f2:62:ec:
                    43:b9:07:1d:c5:ce:c9:60:4b:b5:b1:8e:6b:3c:99:
                    3c:04:5d:87:8f:84:f7:5a:52:40:4c:b6:2e:b8:98:
                    33:b6:5a:1a:2c:94:ea:3c:24:aa:35:82:56:a3:78:
                    64:a8:39:f6:57:50:0e:10:04:9c:42:e2:e2:57:bf:
                    2c:86:33:65:ef:ee:80:d2:39:35:cf:cb:79:46:86:
                    5e:88:12:af:28:75:37:f7:2a:14:2a:95:97:ad:7a:
                    64:c1
                Exponent: 65537 (0x10001)
        X509v3 extensions:
            X509v3 Basic Constraints: 
                CA:FALSE
            X509v3 Subject Key Identifier: 
                E9:D2:79:83:6A:85:8E:BE:D8:FB:E3:84:38:F5:8A:56:5B:A4:7B:4B
            X509v3 Authority Key Identifier: 
                keyid:89:E6:26:3E:D8:5A:84:3A:46:28:C7:73:BB:03:36:59:22:0B:69:AC
                DirName:/CN=ChangeMe
                serial:45:A9:61:A0:5C:85:EA:AE:5C:45:58:7F:74:61:DC:FE:DD:5E:40:CD

            X509v3 Extended Key Usage: 
                TLS Web Client Authentication
            X509v3 Key Usage: 
                Digital Signature
    Signature Algorithm: sha256WithRSAEncryption
         6e:06:48:7d:2b:55:0a:ae:9e:ac:9f:d9:a2:7b:f8:9f:a6:7d:
         9c:fd:ae:ef:e9:70:d9:3a:e3:f3:61:5d:a3:e7:ae:16:23:e6:
         1b:46:d8:8f:01:92:41:d1:0f:e5:e2:5a:5a:33:9c:2e:0d:0c:
         62:2c:e4:0e:03:55:5a:bc:5b:1d:7c:20:76:fa:80:2a:99:11:
         b7:46:4a:18:6d:70:c7:d1:62:76:44:7e:99:ee:19:4c:c4:28:
         62:1f:1f:b7:49:e8:71:9b:01:34:41:62:62:80:84:d1:8f:28:
         95:c2:73:16:52:2b:dd:0c:6c:39:58:4e:73:5f:f3:a4:0c:25:
         c3:2c:48:8f:21:8b:c6:c7:3c:6d:8c:56:44:5b:0e:43:69:82:
         83:e9:e2:64:b2:17:a8:8e:2a:74:19:c8:8b:76:9f:c8:55:7f:
         5e:c0:6a:6a:63:3b:a5:42:1b:9b:94:9b:93:85:7a:b6:32:8c:
         66:7a:13:8b:5d:99:15:57:e5:24:b5:ee:c1:b4:df:4c:b6:dc:
         4e:c6:a5:5b:cc:c6:44:ac:ad:d4:ee:22:0e:9d:a0:d4:66:3d:
         5a:9b:2a:ed:16:1b:2b:79:a9:48:6b:a0:8d:43:45:ca:bc:d8:
         0b:a3:74:6d:b2:06:e8:d0:9f:de:2e:63:34:61:ca:46:f4:60:
         99:56:1a:3a
-----BEGIN CERTIFICATE-----
MIIDTDCCAjSgAwIBAgIQSBbDHvKRVN+vH4Qg943QSzANBgkqhkiG9w0BAQsFADAT
MREwDwYDVQQDDAhDaGFuZ2VNZTAeFw0yMTA0MjAwMjMyMjZaFw0yMzA3MjQwMjMy
MjZaMA8xDTALBgNVBAMMBHRlc3QwggEiMA0GCSqGSIb3DQEBAQUAA4IBDwAwggEK
AoIBAQCi5QLmgjafEDy6/qaI2t98EOGZnw3jvLdxbuYdYGwiUIn25mlju0SeFo2v
jZwJLXdh4YGUi7TSr1ZHjiKPjVjDh+FMkeMfUQ4AJM+LpJA/Sma6+d25dJikcSd/
zbLg/+ffIIGMZwQO4URd5WOcbMF8Sq23FM0WdmDwGyuk0fYUXOGLGZRjHeuJ194v
5BfAAJI2fixjFANqPcNoH3vQdJf/0PJi7EO5Bx3FzslgS7Wxjms8mTwEXYePhPda
UkBMti64mDO2WhoslOo8JKo1glajeGSoOfZXUA4QBJxC4uJXvyyGM2Xv7oDSOTXP
y3lGhl6IEq8odTf3KhQqlZetemTBAgMBAAGjgZ8wgZwwCQYDVR0TBAIwADAdBgNV
HQ4EFgQU6dJ5g2qFjr7Y++OEOPWKVluke0swTgYDVR0jBEcwRYAUieYmPthahDpG
KMdzuwM2WSILaayhF6QVMBMxETAPBgNVBAMMCENoYW5nZU1lghRFqWGgXIXqrlxF
WH90Ydz+3V5AzTATBgNVHSUEDDAKBggrBgEFBQcDAjALBgNVHQ8EBAMCB4AwDQYJ
KoZIhvcNAQELBQADggEBAG4GSH0rVQqunqyf2aJ7+J+mfZz9ru/pcNk64/NhXaPn
rhYj5htG2I8BkkHRD+XiWloznC4NDGIs5A4DVVq8Wx18IHb6gCqZEbdGShhtcMfR
YnZEfpnuGUzEKGIfH7dJ6HGbATRBYmKAhNGPKJXCcxZSK90MbDlYTnNf86QMJcMs
SI8hi8bHPG2MVkRbDkNpgoPp4mSyF6iOKnQZyIt2n8hVf17AampjO6VCG5uUm5OF
erYyjGZ6E4tdmRVX5SS17sG030y23E7GpVvMxkSsrdTuIg6doNRmPVqbKu0WGyt5
qUhroI1DRcq82AujdG2yBujQn94uYzRhykb0YJlWGjo=
-----END CERTIFICATE-----
