Certificate:
    Data:
        Version: 3 (0x2)
        Serial Number:
            61:13:6e:a2:36:19:a6:5f:ae:b2:b9:10:8e:90:b8:d8
        Signature Algorithm: sha256WithRSAEncryption
        Issuer: CN=ChangeMe
        Validity
            Not Before: Apr 26 08:22:54 2021 GMT
            Not After : Jul 30 08:22:54 2023 GMT
        Subject: CN=asdasd
        Subject Public Key Info:
            Public Key Algorithm: rsaEncryption
                RSA Public-Key: (2048 bit)
                Modulus:
                    00:97:cb:1e:ea:90:aa:83:23:60:a7:87:7b:af:3f:
                    df:8c:53:14:70:03:d6:b1:65:2e:5f:08:ea:5a:3e:
                    b7:b3:92:c4:9c:54:23:dc:fc:01:0f:49:10:55:80:
                    9c:5f:0e:ce:fd:0e:98:1a:b1:ce:84:08:eb:f9:2e:
                    c5:ac:b9:28:4a:67:cb:67:1a:22:46:a7:b2:74:89:
                    ad:d5:4f:29:b7:72:a0:3e:38:b8:39:76:fb:f8:f8:
                    06:ce:1a:2e:68:c4:69:94:22:32:70:68:04:7a:8d:
                    0f:2f:68:d4:d5:c8:b2:6a:3f:64:31:08:5f:8a:93:
                    70:62:a4:d5:1c:23:72:70:18:8b:bc:4f:7a:00:b1:
                    5e:b1:ad:7c:2d:dc:88:8a:81:e6:1a:ee:1d:4a:f3:
                    d1:0a:31:08:0b:1d:52:3d:8f:af:a4:79:1f:c1:a8:
                    a2:cb:1c:d5:21:89:4e:f4:d6:8a:a2:ae:e9:f1:54:
                    36:3c:b5:24:0e:84:f9:0e:42:6f:63:04:38:f8:85:
                    68:1c:de:0d:c5:8b:56:b4:71:c8:4f:40:fb:d6:80:
                    c9:fe:6b:e8:31:47:53:4d:36:a7:39:bf:84:5c:51:
                    59:83:64:c0:1f:83:53:1b:33:f1:eb:40:fa:6f:33:
                    61:52:35:75:73:5f:0f:46:b4:bc:eb:ec:78:57:9e:
                    14:41
                Exponent: 65537 (0x10001)
        X509v3 extensions:
            X509v3 Basic Constraints: 
                CA:FALSE
            X509v3 Subject Key Identifier: 
                B6:D7:94:E3:BB:1D:45:D2:69:28:28:E2:25:D5:7F:6D:B7:77:85:D7
            X509v3 Authority Key Identifier: 
                keyid:89:E6:26:3E:D8:5A:84:3A:46:28:C7:73:BB:03:36:59:22:0B:69:AC
                DirName:/CN=ChangeMe
                serial:45:A9:61:A0:5C:85:EA:AE:5C:45:58:7F:74:61:DC:FE:DD:5E:40:CD

            X509v3 Extended Key Usage: 
                TLS Web Client Authentication
            X509v3 Key Usage: 
                Digital Signature
    Signature Algorithm: sha256WithRSAEncryption
         70:5c:75:8a:06:e0:a4:65:22:42:cd:51:81:9f:87:85:23:b4:
         5b:a1:57:05:08:76:9d:fd:ac:a9:ec:74:c6:13:1a:1e:3b:7c:
         3c:3e:c0:5c:8c:4f:83:aa:09:47:85:0d:75:2d:9a:7f:3d:0b:
         a4:5d:d9:97:58:a6:55:f6:6d:d1:af:98:9e:d1:4e:c4:bf:db:
         9b:da:2b:32:47:08:8c:51:b5:88:00:38:81:07:af:7b:0e:09:
         36:2f:2b:36:da:cb:b0:8d:a5:d6:ec:11:dc:0f:7d:ea:06:88:
         73:e1:cc:cc:41:52:9d:e2:7e:f6:2e:77:ff:0e:0e:4d:7d:80:
         6d:73:db:34:46:8d:6b:5a:cd:11:52:d6:2e:2b:c9:72:9d:18:
         60:bc:72:83:cc:7a:a7:20:52:56:76:33:2d:96:b8:20:64:56:
         f9:90:cb:79:bd:80:fd:03:56:de:b1:3e:ae:88:3a:f6:da:4c:
         4c:e6:99:d5:dc:a4:e9:3f:ef:c6:54:b3:bc:10:c8:06:36:cc:
         d6:52:48:06:74:d3:7c:30:9c:c9:19:ca:bb:31:e6:7b:af:60:
         16:29:52:33:0d:a7:00:aa:8c:6d:ca:73:9d:88:fd:97:8f:17:
         5e:a4:3e:4f:23:c8:4e:74:79:1a:25:49:6e:d7:51:ed:f3:88:
         77:ce:41:60
-----BEGIN CERTIFICATE-----
MIIDTjCCAjagAwIBAgIQYRNuojYZpl+usrkQjpC42DANBgkqhkiG9w0BAQsFADAT
MREwDwYDVQQDDAhDaGFuZ2VNZTAeFw0yMTA0MjYwODIyNTRaFw0yMzA3MzAwODIy
NTRaMBExDzANBgNVBAMMBmFzZGFzZDCCASIwDQYJKoZIhvcNAQEBBQADggEPADCC
AQoCggEBAJfLHuqQqoMjYKeHe68/34xTFHAD1rFlLl8I6lo+t7OSxJxUI9z8AQ9J
EFWAnF8Ozv0OmBqxzoQI6/kuxay5KEpny2caIkansnSJrdVPKbdyoD44uDl2+/j4
Bs4aLmjEaZQiMnBoBHqNDy9o1NXIsmo/ZDEIX4qTcGKk1RwjcnAYi7xPegCxXrGt
fC3ciIqB5hruHUrz0QoxCAsdUj2Pr6R5H8Goossc1SGJTvTWiqKu6fFUNjy1JA6E
+Q5Cb2MEOPiFaBzeDcWLVrRxyE9A+9aAyf5r6DFHU002pzm/hFxRWYNkwB+DUxsz
8etA+m8zYVI1dXNfD0a0vOvseFeeFEECAwEAAaOBnzCBnDAJBgNVHRMEAjAAMB0G
A1UdDgQWBBS215Tjux1F0mkoKOIl1X9tt3eF1zBOBgNVHSMERzBFgBSJ5iY+2FqE
OkYox3O7AzZZIgtprKEXpBUwEzERMA8GA1UEAwwIQ2hhbmdlTWWCFEWpYaBchequ
XEVYf3Rh3P7dXkDNMBMGA1UdJQQMMAoGCCsGAQUFBwMCMAsGA1UdDwQEAwIHgDAN
BgkqhkiG9w0BAQsFAAOCAQEAcFx1igbgpGUiQs1RgZ+HhSO0W6FXBQh2nf2sqex0
xhMaHjt8PD7AXIxPg6oJR4UNdS2afz0LpF3Zl1imVfZt0a+YntFOxL/bm9orMkcI
jFG1iAA4gQevew4JNi8rNtrLsI2l1uwR3A996gaIc+HMzEFSneJ+9i53/w4OTX2A
bXPbNEaNa1rNEVLWLivJcp0YYLxyg8x6pyBSVnYzLZa4IGRW+ZDLeb2A/QNW3rE+
rog69tpMTOaZ1dyk6T/vxlSzvBDIBjbM1lJIBnTTfDCcyRnKuzHme69gFilSMw2n
AKqMbcpznYj9l48XXqQ+TyPITnR5GiVJbtdR7fOId85BYA==
-----END CERTIFICATE-----
