Certificate:
    Data:
        Version: 3 (0x2)
        Serial Number:
            7b:3c:ff:76:93:3e:ea:4e:f9:ba:ee:b0:92:b9:cc:cd
        Signature Algorithm: sha256WithRSAEncryption
        Issuer: CN=ChangeMe
        Validity
            Not Before: Apr 20 05:08:33 2021 GMT
            Not After : Jul 24 05:08:33 2023 GMT
        Subject: CN=tes5
        Subject Public Key Info:
            Public Key Algorithm: rsaEncryption
                RSA Public-Key: (2048 bit)
                Modulus:
                    00:aa:4b:ee:44:5d:e6:54:29:0e:ac:be:37:46:a5:
                    ce:a2:aa:95:33:2d:0b:b5:fd:30:32:f7:ea:e6:dc:
                    e3:5e:91:ef:38:67:4c:d9:34:87:03:d5:a2:0c:4e:
                    de:7b:e4:67:e1:07:51:7b:41:0e:ec:a6:ba:56:7e:
                    19:ff:ef:58:a1:7b:56:3e:99:29:d1:5e:c9:05:06:
                    23:97:ec:6a:29:fc:c9:aa:74:95:e1:f4:89:a7:c3:
                    ad:5f:f5:45:ce:e2:f9:52:cb:1e:a8:62:3a:be:88:
                    94:d1:49:81:fa:bf:35:f9:2f:be:d5:a4:08:78:5a:
                    03:e3:45:30:ad:b6:8d:c3:db:42:91:1b:a9:44:4f:
                    66:eb:9f:89:4b:28:b5:29:b8:1a:af:e5:07:9e:34:
                    ae:23:c6:98:11:ce:1e:c0:62:6b:3d:5d:25:58:1c:
                    65:6e:97:9d:40:de:a4:e6:6d:5c:71:2a:c6:bd:0e:
                    48:60:96:ab:92:e7:f8:e6:b7:d8:c1:a1:55:c1:fd:
                    83:9d:1b:8e:60:ac:52:b2:01:e9:4a:8b:78:ca:63:
                    94:73:28:62:f2:fd:d5:e8:9d:0f:7d:60:29:a1:0b:
                    03:89:59:43:f1:6c:21:67:5d:b0:47:09:fb:84:a3:
                    ad:de:97:53:d3:74:4f:07:5a:d6:34:f9:7d:d9:66:
                    f9:53
                Exponent: 65537 (0x10001)
        X509v3 extensions:
            X509v3 Basic Constraints: 
                CA:FALSE
            X509v3 Subject Key Identifier: 
                A6:B8:45:76:67:22:A9:E7:8F:49:98:58:D7:56:DC:B6:7F:AC:ED:2E
            X509v3 Authority Key Identifier: 
                keyid:89:E6:26:3E:D8:5A:84:3A:46:28:C7:73:BB:03:36:59:22:0B:69:AC
                DirName:/CN=ChangeMe
                serial:45:A9:61:A0:5C:85:EA:AE:5C:45:58:7F:74:61:DC:FE:DD:5E:40:CD

            X509v3 Extended Key Usage: 
                TLS Web Client Authentication
            X509v3 Key Usage: 
                Digital Signature
    Signature Algorithm: sha256WithRSAEncryption
         14:45:67:f3:7a:79:de:f9:38:97:e0:f5:ba:a4:f4:4d:3d:4d:
         0d:c0:f5:82:34:2c:8a:d3:e6:b2:93:88:d1:74:03:1a:14:d6:
         e1:db:db:ea:46:e1:f7:de:33:7d:4f:cc:f0:52:21:d9:34:f5:
         11:e3:79:df:15:a7:d3:31:57:a9:ae:0e:61:b8:f7:1c:e4:05:
         74:57:6c:59:64:7d:a8:d8:d4:8e:ce:4b:a1:74:c5:50:6c:dc:
         fc:ae:11:10:b3:d7:6d:0c:b2:92:6e:3d:3b:f2:63:92:52:18:
         de:db:a6:a7:54:d8:d3:99:07:3b:2b:66:2c:27:10:c0:12:6d:
         b0:e3:8d:82:1a:f7:8e:c9:8d:83:a8:03:bd:ea:e2:fd:8a:88:
         7c:51:71:46:de:4a:2c:18:84:21:d4:98:12:83:c8:42:ab:f5:
         2e:86:5a:05:66:4e:da:12:79:40:d9:c5:9e:ec:4a:ac:59:4f:
         7e:e3:06:60:36:f8:e7:8e:a8:46:92:72:80:db:ce:cf:8e:f3:
         92:80:a6:38:a8:b3:1e:7c:7b:d2:47:a5:74:0d:73:ef:0a:0f:
         a7:45:f4:16:f6:4d:2c:b3:d2:d4:04:2d:d0:a0:a2:41:df:0f:
         b9:80:9e:19:d2:71:79:e5:fc:01:b1:8a:b2:8b:ba:c9:71:b0:
         e9:8d:79:82
-----BEGIN CERTIFICATE-----
MIIDTDCCAjSgAwIBAgIQezz/dpM+6k75uu6wkrnMzTANBgkqhkiG9w0BAQsFADAT
MREwDwYDVQQDDAhDaGFuZ2VNZTAeFw0yMTA0MjAwNTA4MzNaFw0yMzA3MjQwNTA4
MzNaMA8xDTALBgNVBAMMBHRlczUwggEiMA0GCSqGSIb3DQEBAQUAA4IBDwAwggEK
AoIBAQCqS+5EXeZUKQ6svjdGpc6iqpUzLQu1/TAy9+rm3ONeke84Z0zZNIcD1aIM
Tt575GfhB1F7QQ7sprpWfhn/71ihe1Y+mSnRXskFBiOX7Gop/MmqdJXh9Imnw61f
9UXO4vlSyx6oYjq+iJTRSYH6vzX5L77VpAh4WgPjRTCtto3D20KRG6lET2brn4lL
KLUpuBqv5QeeNK4jxpgRzh7AYms9XSVYHGVul51A3qTmbVxxKsa9DkhglquS5/jm
t9jBoVXB/YOdG45grFKyAelKi3jKY5RzKGLy/dXonQ99YCmhCwOJWUPxbCFnXbBH
CfuEo63el1PTdE8HWtY0+X3ZZvlTAgMBAAGjgZ8wgZwwCQYDVR0TBAIwADAdBgNV
HQ4EFgQUprhFdmciqeePSZhY11bctn+s7S4wTgYDVR0jBEcwRYAUieYmPthahDpG
KMdzuwM2WSILaayhF6QVMBMxETAPBgNVBAMMCENoYW5nZU1lghRFqWGgXIXqrlxF
WH90Ydz+3V5AzTATBgNVHSUEDDAKBggrBgEFBQcDAjALBgNVHQ8EBAMCB4AwDQYJ
KoZIhvcNAQELBQADggEBABRFZ/N6ed75OJfg9bqk9E09TQ3A9YI0LIrT5rKTiNF0
AxoU1uHb2+pG4ffeM31PzPBSIdk09RHjed8Vp9MxV6muDmG49xzkBXRXbFlkfajY
1I7OS6F0xVBs3PyuERCz120MspJuPTvyY5JSGN7bpqdU2NOZBzsrZiwnEMASbbDj
jYIa947JjYOoA73q4v2KiHxRcUbeSiwYhCHUmBKDyEKr9S6GWgVmTtoSeUDZxZ7s
SqxZT37jBmA2+OeOqEaScoDbzs+O85KApjiosx58e9JHpXQNc+8KD6dF9Bb2TSyz
0tQELdCgokHfD7mAnhnScXnl/AGxirKLuslxsOmNeYI=
-----END CERTIFICATE-----
