Certificate:
    Data:
        Version: 3 (0x2)
        Serial Number:
            9e:17:8e:3f:c9:3c:fc:e7:87:67:00:74:d8:9a:65:a0
    Signature Algorithm: sha256WithRSAEncryption
        Issuer: CN=ChangeMe
        Validity
            Not Before: Oct 18 08:01:00 2021 GMT
            Not After : Jan 21 08:01:00 2024 GMT
        Subject: CN=hm-centervpn2
        Subject Public Key Info:
            Public Key Algorithm: rsaEncryption
                Public-Key: (2048 bit)
                Modulus:
                    00:a5:34:85:80:ff:47:5b:50:38:e2:93:b4:ee:50:
                    96:86:7d:15:01:32:37:0a:78:3b:6c:82:87:97:8e:
                    5e:69:bf:5e:fe:a1:6b:1c:45:16:25:00:44:ff:eb:
                    c3:e5:1f:96:ba:06:c4:25:73:a6:3b:5f:be:86:bf:
                    e5:60:82:0b:18:42:25:92:34:31:cc:48:15:71:d8:
                    1e:d6:f8:f7:58:cb:03:8d:77:96:63:41:4d:28:81:
                    7d:01:d7:ec:8b:d7:29:2a:62:94:98:9e:d4:77:ec:
                    84:b9:1f:6d:23:95:73:8b:9c:33:35:83:d7:ef:19:
                    5c:cd:2d:1b:56:89:f7:c6:c3:75:53:b0:f2:9c:99:
                    bf:a3:97:31:4e:88:2f:7a:c8:25:59:fc:cd:49:41:
                    7d:59:b4:b7:9c:88:74:73:40:eb:2e:c0:c9:66:64:
                    0c:e4:4a:b4:3a:3b:06:d4:1f:72:a5:6d:c8:51:34:
                    3d:8f:fa:0e:68:66:68:ba:0f:5a:4b:ef:1c:9b:1f:
                    44:aa:5c:bd:36:bb:ef:17:1a:ea:6a:3c:5e:c1:6d:
                    f8:fc:d7:a4:52:5b:7a:e0:ee:75:0b:67:d6:18:e0:
                    e3:4b:b1:03:a7:18:0d:e9:c9:5e:d0:1e:c8:30:a6:
                    dd:d9:4c:d5:ae:4c:14:0a:62:d6:50:9d:61:81:ef:
                    e6:9b
                Exponent: 65537 (0x10001)
        X509v3 extensions:
            X509v3 Basic Constraints: 
                CA:FALSE
            X509v3 Subject Key Identifier: 
                C1:0A:31:0A:93:8C:83:EE:80:21:01:EE:89:58:6B:99:4F:47:06:14
            X509v3 Authority Key Identifier: 
                keyid:89:E6:26:3E:D8:5A:84:3A:46:28:C7:73:BB:03:36:59:22:0B:69:AC
                DirName:/CN=ChangeMe
                serial:45:A9:61:A0:5C:85:EA:AE:5C:45:58:7F:74:61:DC:FE:DD:5E:40:CD

            X509v3 Extended Key Usage: 
                TLS Web Client Authentication
            X509v3 Key Usage: 
                Digital Signature
    Signature Algorithm: sha256WithRSAEncryption
         43:33:bf:5c:2e:12:58:1f:2b:5e:bc:c9:b5:a7:90:3d:34:c9:
         6c:ca:44:ed:2e:31:0e:d1:e3:2b:0f:32:e3:0b:63:9f:20:b8:
         65:b4:78:50:a4:29:6f:a6:dc:46:3b:d1:b7:42:b1:f9:6a:22:
         08:15:ac:aa:64:f1:56:26:58:ba:96:2e:f3:cc:aa:ab:5f:7d:
         18:89:9d:8c:ca:dd:4a:87:06:25:25:c1:cb:5e:fb:fc:30:0e:
         ac:91:04:fe:34:dc:eb:ab:91:23:b9:ed:7a:8f:34:7a:5c:06:
         a0:15:3b:87:66:08:ae:27:d4:bc:87:df:c8:71:4c:3c:e2:cf:
         1a:9f:f7:9c:fc:d5:41:10:64:a0:25:ee:c5:8c:82:d1:8e:76:
         cd:53:53:f9:bd:0d:f8:2b:d2:3a:ac:fe:14:57:b9:13:f9:f5:
         fe:37:8c:80:11:6e:b3:76:14:74:ef:1b:71:50:2a:11:8c:e6:
         09:25:f7:05:7f:70:fd:ca:9d:b1:0f:ba:f6:0b:b0:70:25:6c:
         a9:f6:f6:07:57:88:55:57:d6:2a:0e:dc:ab:91:29:53:c2:28:
         28:65:16:19:52:19:0e:10:ee:a2:cb:6e:f9:5f:3e:e0:95:86:
         ec:e8:7f:25:6d:56:55:85:d1:e5:8d:07:2b:03:f4:d7:cf:e6:
         82:d1:3a:ad
-----BEGIN CERTIFICATE-----
MIIDVjCCAj6gAwIBAgIRAJ4Xjj/JPPznh2cAdNiaZaAwDQYJKoZIhvcNAQELBQAw
EzERMA8GA1UEAwwIQ2hhbmdlTWUwHhcNMjExMDE4MDgwMTAwWhcNMjQwMTIxMDgw
MTAwWjAYMRYwFAYDVQQDDA1obS1jZW50ZXJ2cG4yMIIBIjANBgkqhkiG9w0BAQEF
AAOCAQ8AMIIBCgKCAQEApTSFgP9HW1A44pO07lCWhn0VATI3Cng7bIKHl45eab9e
/qFrHEUWJQBE/+vD5R+WugbEJXOmO1++hr/lYIILGEIlkjQxzEgVcdge1vj3WMsD
jXeWY0FNKIF9Adfsi9cpKmKUmJ7Ud+yEuR9tI5Vzi5wzNYPX7xlczS0bVon3xsN1
U7DynJm/o5cxTogvesglWfzNSUF9WbS3nIh0c0DrLsDJZmQM5Eq0OjsG1B9ypW3I
UTQ9j/oOaGZoug9aS+8cmx9Eqly9NrvvFxrqajxewW34/NekUlt64O51C2fWGODj
S7EDpxgN6cle0B7IMKbd2UzVrkwUCmLWUJ1hge/mmwIDAQABo4GfMIGcMAkGA1Ud
EwQCMAAwHQYDVR0OBBYEFMEKMQqTjIPugCEB7olYa5lPRwYUME4GA1UdIwRHMEWA
FInmJj7YWoQ6RijHc7sDNlkiC2msoRekFTATMREwDwYDVQQDDAhDaGFuZ2VNZYIU
RalhoFyF6q5cRVh/dGHc/t1eQM0wEwYDVR0lBAwwCgYIKwYBBQUHAwIwCwYDVR0P
BAQDAgeAMA0GCSqGSIb3DQEBCwUAA4IBAQBDM79cLhJYHytevMm1p5A9NMlsykTt
LjEO0eMrDzLjC2OfILhltHhQpClvptxGO9G3QrH5aiIIFayqZPFWJli6li7zzKqr
X30YiZ2Myt1KhwYlJcHLXvv8MA6skQT+NNzrq5Ejue16jzR6XAagFTuHZgiuJ9S8
h9/IcUw84s8an/ec/NVBEGSgJe7FjILRjnbNU1P5vQ34K9I6rP4UV7kT+fX+N4yA
EW6zdhR07xtxUCoRjOYJJfcFf3D9yp2xD7r2C7BwJWyp9vYHV4hVV9YqDtyrkSlT
wigoZRYZUhkOEO6iy275Xz7glYbs6H8lbVZVhdHljQcrA/TXz+aC0Tqt
-----END CERTIFICATE-----
