Certificate:
    Data:
        Version: 3 (0x2)
        Serial Number:
            a6:4e:ba:c6:e4:60:b6:1f:25:af:94:f9:be:45:96:7f
        Signature Algorithm: sha256WithRSAEncryption
        Issuer: CN=ChangeMe
        Validity
            Not Before: Apr 20 08:25:26 2021 GMT
            Not After : Jul 24 08:25:26 2023 GMT
        Subject: CN=ttt
        Subject Public Key Info:
            Public Key Algorithm: rsaEncryption
                RSA Public-Key: (2048 bit)
                Modulus:
                    00:c4:85:2f:6c:08:34:39:97:53:9b:90:9b:17:d0:
                    2d:b1:c7:41:d0:47:50:8f:d6:6a:9a:fa:d3:5f:fd:
                    4f:db:92:9a:23:c1:e8:f8:93:1c:28:93:00:ad:6c:
                    6d:48:86:96:4e:fe:6e:20:10:3c:d4:45:ab:71:87:
                    c1:36:52:4c:f7:23:16:c5:e3:6a:10:6b:41:c4:97:
                    5e:1a:4c:af:37:81:9f:25:88:16:5e:0f:7e:54:47:
                    32:b4:78:ef:ee:e8:bd:65:52:ef:4a:69:80:49:6c:
                    a9:4e:41:41:4a:21:45:31:8b:c2:65:7f:b9:cd:03:
                    43:a1:80:e2:10:c5:c0:32:f3:cf:02:99:dd:1f:05:
                    a0:cf:1d:88:f6:8c:91:8f:b7:2a:5f:3f:79:a3:33:
                    5a:4e:25:61:b7:a3:7c:13:09:f2:ba:85:be:05:28:
                    4c:f6:b1:78:21:e3:90:f1:9d:21:7e:39:0e:b2:04:
                    7e:4c:ee:70:cb:65:09:4b:74:7b:9d:f5:24:eb:2d:
                    4f:33:f1:1a:c8:f6:4f:93:c0:ba:ec:7d:dc:8a:97:
                    05:d8:29:23:60:2b:86:37:5a:76:8f:9e:f0:09:af:
                    9c:e5:cb:79:68:0b:10:31:0f:ce:37:93:fc:56:d8:
                    5a:34:f9:51:92:f5:9f:11:d9:56:31:2e:86:a0:e6:
                    b7:03
                Exponent: 65537 (0x10001)
        X509v3 extensions:
            X509v3 Basic Constraints: 
                CA:FALSE
            X509v3 Subject Key Identifier: 
                74:48:9B:D8:D4:91:65:D3:73:C2:89:17:CC:A0:DA:80:B1:55:FD:CE
            X509v3 Authority Key Identifier: 
                keyid:89:E6:26:3E:D8:5A:84:3A:46:28:C7:73:BB:03:36:59:22:0B:69:AC
                DirName:/CN=ChangeMe
                serial:45:A9:61:A0:5C:85:EA:AE:5C:45:58:7F:74:61:DC:FE:DD:5E:40:CD

            X509v3 Extended Key Usage: 
                TLS Web Client Authentication
            X509v3 Key Usage: 
                Digital Signature
    Signature Algorithm: sha256WithRSAEncryption
         82:15:23:4a:a6:b0:64:d2:3e:74:67:f4:53:60:bc:d4:4f:01:
         1c:50:04:09:52:27:ff:7a:39:2e:c2:67:d1:a2:b4:8d:c2:f5:
         1b:30:ca:54:eb:b7:f8:b8:c7:2a:66:d6:33:25:b3:62:58:be:
         10:be:56:7c:51:96:4b:5d:81:9e:55:53:5c:00:50:61:2b:51:
         52:f1:ab:8d:7f:09:c1:83:83:9e:e0:a1:81:99:c2:85:6e:b8:
         39:ae:27:66:b6:94:ac:1b:8b:d9:13:24:25:5f:3e:a5:2c:ec:
         0e:bc:c0:54:fd:4a:21:45:5e:73:e7:68:eb:4d:d2:74:e4:f8:
         71:6c:f9:65:c5:1f:01:b3:ba:09:e7:8e:db:38:41:55:15:f9:
         e9:5d:23:72:b5:00:75:1b:15:75:ef:45:49:d3:82:6e:50:ae:
         15:8d:7d:55:d7:6e:32:81:4b:8c:fb:6d:b0:25:25:da:f8:c6:
         7b:3c:95:70:5b:4a:35:f5:f3:38:44:ec:0a:45:5e:5a:13:c9:
         1c:04:55:d7:a0:fd:47:2a:82:20:f3:20:0d:22:5c:d6:81:ef:
         da:59:95:05:41:8d:11:d2:ab:0e:35:b5:f5:59:e8:51:1d:e1:
         6d:3c:41:2d:45:fc:a6:b0:33:79:c0:a1:13:fa:09:07:7a:1d:
         b6:85:70:56
-----BEGIN CERTIFICATE-----
MIIDTDCCAjSgAwIBAgIRAKZOusbkYLYfJa+U+b5Fln8wDQYJKoZIhvcNAQELBQAw
EzERMA8GA1UEAwwIQ2hhbmdlTWUwHhcNMjEwNDIwMDgyNTI2WhcNMjMwNzI0MDgy
NTI2WjAOMQwwCgYDVQQDDAN0dHQwggEiMA0GCSqGSIb3DQEBAQUAA4IBDwAwggEK
AoIBAQDEhS9sCDQ5l1ObkJsX0C2xx0HQR1CP1mqa+tNf/U/bkpojwej4kxwokwCt
bG1IhpZO/m4gEDzURatxh8E2Ukz3IxbF42oQa0HEl14aTK83gZ8liBZeD35URzK0
eO/u6L1lUu9KaYBJbKlOQUFKIUUxi8Jlf7nNA0OhgOIQxcAy888Cmd0fBaDPHYj2
jJGPtypfP3mjM1pOJWG3o3wTCfK6hb4FKEz2sXgh45DxnSF+OQ6yBH5M7nDLZQlL
dHud9STrLU8z8RrI9k+TwLrsfdyKlwXYKSNgK4Y3WnaPnvAJr5zly3loCxAxD843
k/xW2Fo0+VGS9Z8R2VYxLoag5rcDAgMBAAGjgZ8wgZwwCQYDVR0TBAIwADAdBgNV
HQ4EFgQUdEib2NSRZdNzwokXzKDagLFV/c4wTgYDVR0jBEcwRYAUieYmPthahDpG
KMdzuwM2WSILaayhF6QVMBMxETAPBgNVBAMMCENoYW5nZU1lghRFqWGgXIXqrlxF
WH90Ydz+3V5AzTATBgNVHSUEDDAKBggrBgEFBQcDAjALBgNVHQ8EBAMCB4AwDQYJ
KoZIhvcNAQELBQADggEBAIIVI0qmsGTSPnRn9FNgvNRPARxQBAlSJ/96OS7CZ9Gi
tI3C9RswylTrt/i4xypm1jMls2JYvhC+VnxRlktdgZ5VU1wAUGErUVLxq41/CcGD
g57goYGZwoVuuDmuJ2a2lKwbi9kTJCVfPqUs7A68wFT9SiFFXnPnaOtN0nTk+HFs
+WXFHwGzugnnjts4QVUV+eldI3K1AHUbFXXvRUnTgm5QrhWNfVXXbjKBS4z7bbAl
Jdr4xns8lXBbSjX18zhE7ApFXloTyRwEVdeg/UcqgiDzIA0iXNaB79pZlQVBjRHS
qw41tfVZ6FEd4W08QS1F/KawM3nAoRP6CQd6HbaFcFY=
-----END CERTIFICATE-----
