Certificate:
    Data:
        Version: 3 (0x2)
        Serial Number:
            ab:3f:f3:17:01:ab:54:cd:52:99:8c:bd:19:2c:fa:83
        Signature Algorithm: sha256WithRSAEncryption
        Issuer: CN=ChangeMe
        Validity
            Not Before: Apr 20 02:42:43 2021 GMT
            Not After : Jul 24 02:42:43 2023 GMT
        Subject: CN=aaa
        Subject Public Key Info:
            Public Key Algorithm: rsaEncryption
                RSA Public-Key: (2048 bit)
                Modulus:
                    00:b5:ef:be:7a:cb:8e:96:e3:67:3f:2c:24:be:0d:
                    55:53:e1:99:06:48:4f:3f:4e:3e:2f:03:8b:8f:a3:
                    c7:1c:c4:f4:fa:47:fb:5b:49:10:18:3e:a3:08:76:
                    7b:ee:07:ca:e2:34:93:19:bf:32:60:5b:61:55:33:
                    f7:b4:39:32:a1:06:c4:c2:2e:be:e4:3f:c2:16:c1:
                    39:8d:39:5f:d3:bd:be:52:ca:d3:aa:57:ec:02:3c:
                    bb:47:04:4f:76:73:88:0e:47:8e:51:b4:bb:95:92:
                    49:54:61:08:ff:7e:7e:61:52:ff:77:cd:09:df:d4:
                    b8:73:88:51:d3:ae:6a:ec:30:d0:bc:11:d0:ac:fc:
                    06:2e:ec:ca:ca:fd:10:8d:2a:24:e1:d5:2b:6e:10:
                    d7:19:ae:35:0f:dd:5e:38:11:c6:89:1b:65:df:bd:
                    eb:3a:66:bb:27:8e:e2:83:c4:19:dd:ce:a1:67:61:
                    65:68:b0:8f:bc:df:72:7d:0c:3b:6a:97:e9:90:2f:
                    1d:2b:60:8c:af:5a:49:70:58:2c:ca:09:b3:92:2a:
                    b7:15:96:e5:36:82:61:36:d6:83:a3:cf:62:3a:f6:
                    3a:d5:59:c1:b5:e8:97:b5:d4:40:c8:01:77:c9:d1:
                    1c:8f:4e:d5:44:62:98:b1:99:0d:13:21:15:a2:6f:
                    70:f1
                Exponent: 65537 (0x10001)
        X509v3 extensions:
            X509v3 Basic Constraints: 
                CA:FALSE
            X509v3 Subject Key Identifier: 
                8D:AF:09:99:1D:3E:2C:76:B6:BC:2B:CE:A2:AE:FB:C8:0F:0E:A4:BF
            X509v3 Authority Key Identifier: 
                keyid:89:E6:26:3E:D8:5A:84:3A:46:28:C7:73:BB:03:36:59:22:0B:69:AC
                DirName:/CN=ChangeMe
                serial:45:A9:61:A0:5C:85:EA:AE:5C:45:58:7F:74:61:DC:FE:DD:5E:40:CD

            X509v3 Extended Key Usage: 
                TLS Web Client Authentication
            X509v3 Key Usage: 
                Digital Signature
    Signature Algorithm: sha256WithRSAEncryption
         52:c9:db:e5:1a:4e:70:72:98:6c:46:a8:14:38:b9:dc:53:03:
         64:9f:45:c7:4a:a3:62:00:a2:89:52:2d:77:99:af:b4:c7:19:
         a2:a6:a9:16:b6:01:dc:30:41:ed:51:35:ed:60:97:6b:55:ba:
         0e:9e:9b:ec:3e:32:d4:b9:66:fa:e9:81:6c:84:2d:95:3e:11:
         3d:53:07:6d:a0:48:d8:50:f3:06:ae:b2:1a:b7:65:b5:c7:81:
         3d:07:2e:be:ed:e8:1a:d8:82:06:ad:fd:6f:38:83:5a:f8:40:
         f9:47:e3:9a:e1:ac:5b:53:da:31:fc:00:10:90:86:bb:38:ec:
         e6:6e:a0:88:54:f6:c6:af:d3:ef:dd:9b:f6:75:47:1b:64:bc:
         62:55:75:71:7f:b2:f9:dd:c7:6b:ab:80:bf:08:7b:28:ef:c7:
         d9:82:56:f6:48:b4:23:cf:af:ae:79:27:2a:a3:c3:47:78:29:
         24:8e:c9:96:66:bc:d8:dc:80:ce:a5:96:f6:7d:7b:ed:0f:39:
         54:4e:ef:db:92:a3:68:8d:43:b9:27:5d:1f:b0:b5:75:f0:fa:
         d4:ba:db:c7:8d:c7:06:58:4c:15:ea:3d:8b:c6:f0:d5:84:16:
         13:e5:a6:7b:98:fd:5c:13:62:b8:9b:05:65:01:b0:38:fd:f7:
         7f:18:da:a4
-----BEGIN CERTIFICATE-----
MIIDTDCCAjSgAwIBAgIRAKs/8xcBq1TNUpmMvRks+oMwDQYJKoZIhvcNAQELBQAw
EzERMA8GA1UEAwwIQ2hhbmdlTWUwHhcNMjEwNDIwMDI0MjQzWhcNMjMwNzI0MDI0
MjQzWjAOMQwwCgYDVQQDDANhYWEwggEiMA0GCSqGSIb3DQEBAQUAA4IBDwAwggEK
AoIBAQC17756y46W42c/LCS+DVVT4ZkGSE8/Tj4vA4uPo8ccxPT6R/tbSRAYPqMI
dnvuB8riNJMZvzJgW2FVM/e0OTKhBsTCLr7kP8IWwTmNOV/Tvb5SytOqV+wCPLtH
BE92c4gOR45RtLuVkklUYQj/fn5hUv93zQnf1LhziFHTrmrsMNC8EdCs/AYu7MrK
/RCNKiTh1StuENcZrjUP3V44EcaJG2Xfves6ZrsnjuKDxBndzqFnYWVosI+833J9
DDtql+mQLx0rYIyvWklwWCzKCbOSKrcVluU2gmE21oOjz2I69jrVWcG16Je11EDI
AXfJ0RyPTtVEYpixmQ0TIRWib3DxAgMBAAGjgZ8wgZwwCQYDVR0TBAIwADAdBgNV
HQ4EFgQUja8JmR0+LHa2vCvOoq77yA8OpL8wTgYDVR0jBEcwRYAUieYmPthahDpG
KMdzuwM2WSILaayhF6QVMBMxETAPBgNVBAMMCENoYW5nZU1lghRFqWGgXIXqrlxF
WH90Ydz+3V5AzTATBgNVHSUEDDAKBggrBgEFBQcDAjALBgNVHQ8EBAMCB4AwDQYJ
KoZIhvcNAQELBQADggEBAFLJ2+UaTnBymGxGqBQ4udxTA2SfRcdKo2IAoolSLXeZ
r7THGaKmqRa2AdwwQe1RNe1gl2tVug6em+w+MtS5ZvrpgWyELZU+ET1TB22gSNhQ
8waushq3ZbXHgT0HLr7t6BrYggat/W84g1r4QPlH45rhrFtT2jH8ABCQhrs47OZu
oIhU9sav0+/dm/Z1RxtkvGJVdXF/svndx2urgL8Ieyjvx9mCVvZItCPPr655Jyqj
w0d4KSSOyZZmvNjcgM6llvZ9e+0POVRO79uSo2iNQ7knXR+wtXXw+tS628eNxwZY
TBXqPYvG8NWEFhPlpnuY/VwTYribBWUBsDj9938Y2qQ=
-----END CERTIFICATE-----
