Certificate:
    Data:
        Version: 3 (0x2)
        Serial Number:
            b6:42:8f:ac:89:6f:f3:e0:2f:8e:3b:54:cb:2d:69:c7
    Signature Algorithm: sha256WithRSAEncryption
        Issuer: CN=ChangeMe
        Validity
            Not Before: Oct 20 09:41:53 2021 GMT
            Not After : Jun 29 09:41:53 2035 GMT
        Subject: CN=yejitest20
        Subject Public Key Info:
            Public Key Algorithm: rsaEncryption
                Public-Key: (2048 bit)
                Modulus:
                    00:cb:8b:3e:81:60:af:b4:ff:10:90:6b:ac:5e:76:
                    4b:f4:45:df:68:7b:94:46:3b:f5:e8:37:69:0a:3a:
                    96:45:9c:2b:b3:96:a0:5a:10:e7:8b:33:13:b9:dd:
                    aa:97:45:19:9c:dd:1d:5e:fd:e3:a2:9d:6e:3b:04:
                    35:cb:f8:78:52:6a:38:d9:89:6e:2a:74:27:53:89:
                    9d:ed:dc:3f:1d:42:59:d6:c8:a2:3d:ff:d0:d8:86:
                    83:4e:1c:31:c4:4f:82:cf:8b:4d:65:a0:b4:35:14:
                    66:a2:66:7a:76:f8:55:03:90:c2:0f:49:aa:1e:22:
                    71:19:91:41:76:7c:b0:c0:d8:e1:82:35:f3:56:39:
                    82:d4:ed:4f:f6:f8:67:ab:94:8e:11:c5:96:dd:19:
                    13:05:8c:39:a8:d0:77:17:d6:60:ab:01:6c:86:b4:
                    95:55:7b:02:9a:d6:27:6f:cc:bd:8e:7b:23:49:0f:
                    3a:b3:f7:87:4f:14:f1:04:6e:cf:dc:ad:05:15:ad:
                    3a:a8:d2:88:ce:1a:d3:83:ce:55:fd:40:a6:d5:53:
                    db:01:01:86:b3:dc:f5:80:66:60:2c:f6:46:be:b4:
                    98:66:e4:8b:22:01:5c:56:d2:8f:22:14:9d:7e:58:
                    c9:c9:b8:51:a9:5b:f9:49:5a:6d:11:71:90:83:d3:
                    ff:01
                Exponent: 65537 (0x10001)
        X509v3 extensions:
            X509v3 Basic Constraints: 
                CA:FALSE
            X509v3 Subject Key Identifier: 
                F8:28:60:94:7D:2C:A0:86:34:2E:F7:39:5C:B5:E2:C2:71:31:81:70
            X509v3 Authority Key Identifier: 
                keyid:89:E6:26:3E:D8:5A:84:3A:46:28:C7:73:BB:03:36:59:22:0B:69:AC
                DirName:/CN=ChangeMe
                serial:45:A9:61:A0:5C:85:EA:AE:5C:45:58:7F:74:61:DC:FE:DD:5E:40:CD

            X509v3 Extended Key Usage: 
                TLS Web Client Authentication
            X509v3 Key Usage: 
                Digital Signature
    Signature Algorithm: sha256WithRSAEncryption
         61:9e:e7:9d:5e:9d:a5:c0:79:ad:32:26:eb:94:e2:ba:ff:cd:
         87:50:86:ab:98:c6:c6:0f:16:ef:0b:54:33:32:34:3f:9a:0e:
         a3:82:e0:38:e3:6d:e2:ac:79:a4:3f:22:45:25:4e:a1:8f:71:
         ff:95:01:a6:27:d0:aa:97:33:40:f1:81:48:8b:12:41:a3:45:
         94:31:19:bd:7c:17:40:eb:77:01:31:10:e5:10:c0:ef:b7:86:
         bd:a7:bf:94:86:fd:50:e6:fd:88:6b:e0:38:9a:7a:2e:c2:31:
         94:97:61:8f:7e:da:c1:3d:42:37:44:4d:bf:32:db:dd:31:32:
         c7:78:ca:41:97:67:58:7c:01:4b:69:1a:ef:b2:d8:5f:27:94:
         81:65:44:71:58:2f:fb:91:5e:1b:7f:2d:5f:ce:af:cd:d3:d9:
         66:8a:35:d4:f1:0e:a7:a8:e9:9f:7e:97:ed:4b:7b:dd:44:51:
         50:1a:c9:56:85:d5:b5:bb:3c:b5:6a:ac:9b:92:15:6b:a5:f6:
         f5:57:43:4c:85:03:e7:75:16:28:98:a7:f8:20:79:4e:92:4b:
         50:64:7a:89:b8:d9:d3:37:17:82:fd:5a:0b:69:25:6d:e5:cd:
         3d:4c:9f:88:6c:13:6c:aa:16:3d:e6:d4:25:f6:3d:3e:92:5c:
         f9:02:3b:f8
-----BEGIN CERTIFICATE-----
MIIDUzCCAjugAwIBAgIRALZCj6yJb/PgL447VMstaccwDQYJKoZIhvcNAQELBQAw
EzERMA8GA1UEAwwIQ2hhbmdlTWUwHhcNMjExMDIwMDk0MTUzWhcNMzUwNjI5MDk0
MTUzWjAVMRMwEQYDVQQDDAp5ZWppdGVzdDIwMIIBIjANBgkqhkiG9w0BAQEFAAOC
AQ8AMIIBCgKCAQEAy4s+gWCvtP8QkGusXnZL9EXfaHuURjv16DdpCjqWRZwrs5ag
WhDnizMTud2ql0UZnN0dXv3jop1uOwQ1y/h4Umo42YluKnQnU4md7dw/HUJZ1sii
Pf/Q2IaDThwxxE+Cz4tNZaC0NRRmomZ6dvhVA5DCD0mqHiJxGZFBdnywwNjhgjXz
VjmC1O1P9vhnq5SOEcWW3RkTBYw5qNB3F9ZgqwFshrSVVXsCmtYnb8y9jnsjSQ86
s/eHTxTxBG7P3K0FFa06qNKIzhrTg85V/UCm1VPbAQGGs9z1gGZgLPZGvrSYZuSL
IgFcVtKPIhSdfljJybhRqVv5SVptEXGQg9P/AQIDAQABo4GfMIGcMAkGA1UdEwQC
MAAwHQYDVR0OBBYEFPgoYJR9LKCGNC73OVy14sJxMYFwME4GA1UdIwRHMEWAFInm
Jj7YWoQ6RijHc7sDNlkiC2msoRekFTATMREwDwYDVQQDDAhDaGFuZ2VNZYIURalh
oFyF6q5cRVh/dGHc/t1eQM0wEwYDVR0lBAwwCgYIKwYBBQUHAwIwCwYDVR0PBAQD
AgeAMA0GCSqGSIb3DQEBCwUAA4IBAQBhnuedXp2lwHmtMibrlOK6/82HUIarmMbG
DxbvC1QzMjQ/mg6jguA4423irHmkPyJFJU6hj3H/lQGmJ9CqlzNA8YFIixJBo0WU
MRm9fBdA63cBMRDlEMDvt4a9p7+Uhv1Q5v2Ia+A4mnouwjGUl2GPftrBPUI3RE2/
MtvdMTLHeMpBl2dYfAFLaRrvsthfJ5SBZURxWC/7kV4bfy1fzq/N09lmijXU8Q6n
qOmffpftS3vdRFFQGslWhdW1uzy1aqybkhVrpfb1V0NMhQPndRYomKf4IHlOkktQ
ZHqJuNnTNxeC/VoLaSVt5c09TJ+IbBNsqhY95tQl9j0+klz5Ajv4
-----END CERTIFICATE-----
