Certificate:
    Data:
        Version: 3 (0x2)
        Serial Number:
            b8:e8:00:6a:39:bf:73:72:ec:66:79:b3:e4:36:ca:fb
        Signature Algorithm: sha256WithRSAEncryption
        Issuer: CN=ChangeMe
        Validity
            Not Before: Apr 20 02:30:40 2021 GMT
            Not After : Jul 24 02:30:40 2023 GMT
        Subject: CN=test2
        Subject Public Key Info:
            Public Key Algorithm: rsaEncryption
                RSA Public-Key: (2048 bit)
                Modulus:
                    00:bc:ba:f6:ee:d0:a3:ed:fd:6a:6d:53:de:85:05:
                    53:dd:08:07:13:07:a1:56:b2:b4:f7:da:9c:12:47:
                    f1:11:13:0b:f3:ce:59:e7:e4:48:2b:85:51:96:64:
                    e5:3e:ff:7a:c6:75:fb:56:6e:27:5f:a6:67:ca:bb:
                    4d:7a:77:0d:22:d0:7e:6e:6e:13:41:34:18:44:6e:
                    17:8d:08:a8:49:8a:af:36:ca:fc:86:50:c3:7b:bd:
                    dc:46:85:97:03:4b:c6:39:3a:15:b7:89:26:5d:83:
                    28:48:43:13:33:a9:56:19:fa:02:9d:07:c9:e6:4b:
                    e5:84:ed:c7:32:ce:f3:67:96:96:4c:1a:ea:44:11:
                    e5:79:4b:57:94:8c:7d:9e:2f:3a:91:26:7c:9a:c5:
                    49:15:34:70:06:13:c3:b4:87:f2:64:25:91:04:0b:
                    13:bd:c9:b4:01:30:b0:c0:aa:17:e8:35:ce:cd:84:
                    1d:99:27:a6:7d:ad:03:c4:12:74:ce:a9:00:75:f9:
                    38:bb:6d:16:65:cf:b6:02:78:22:ed:4a:c8:11:50:
                    d3:f2:5e:48:b3:8e:6c:06:2e:9e:f2:45:ca:58:e1:
                    f9:3b:a2:52:3f:ba:91:fc:47:fe:5e:4c:83:e0:dd:
                    68:b9:a4:94:cc:95:83:c1:9e:5a:20:40:1c:38:e9:
                    3c:95
                Exponent: 65537 (0x10001)
        X509v3 extensions:
            X509v3 Basic Constraints: 
                CA:FALSE
            X509v3 Subject Key Identifier: 
                CD:19:CE:C6:43:C2:E7:5E:33:83:8A:0D:F9:D9:52:89:83:0B:34:AD
            X509v3 Authority Key Identifier: 
                keyid:89:E6:26:3E:D8:5A:84:3A:46:28:C7:73:BB:03:36:59:22:0B:69:AC
                DirName:/CN=ChangeMe
                serial:45:A9:61:A0:5C:85:EA:AE:5C:45:58:7F:74:61:DC:FE:DD:5E:40:CD

            X509v3 Extended Key Usage: 
                TLS Web Client Authentication
            X509v3 Key Usage: 
                Digital Signature
    Signature Algorithm: sha256WithRSAEncryption
         8a:30:0c:a1:43:1d:ea:31:fe:32:8b:78:be:a6:8c:b3:e7:8d:
         c5:9d:64:6d:d1:7e:65:ff:df:9d:16:fe:8e:23:d6:f1:bc:58:
         e3:7f:0f:b0:47:5d:cb:68:a4:a5:17:48:72:9a:bf:e8:48:45:
         f4:1b:34:82:a6:84:84:25:ae:a3:ba:5f:99:58:8c:5d:eb:b2:
         4f:46:9a:17:73:94:be:af:f4:b3:c1:54:54:50:17:20:c3:bc:
         91:8e:bb:3d:d4:e2:4a:bb:57:40:b2:70:06:82:72:a9:82:f9:
         83:d4:b2:58:47:8c:c8:bc:60:ca:e2:f6:9a:7c:ee:54:36:c7:
         66:55:3a:e6:73:76:45:d1:c2:22:ae:cd:88:4f:bd:45:a9:43:
         50:62:94:0a:80:11:3e:65:84:bf:dc:5a:17:15:a1:24:e9:a3:
         30:0f:26:bd:46:54:20:ed:52:e4:6e:71:14:03:14:40:0d:dc:
         36:fc:6d:1b:6e:02:ec:96:94:71:7c:b6:2f:f0:eb:23:e1:17:
         69:38:3b:74:c6:15:36:5d:a2:f9:e3:08:a9:b3:e2:f7:97:87:
         80:8c:04:91:95:3e:a4:30:1e:90:cb:7f:63:8d:f2:dd:d7:08:
         c8:6e:5f:69:72:b6:fd:e4:b3:15:76:ed:2f:5f:f7:2e:e7:b0:
         fb:15:19:5b
-----BEGIN CERTIFICATE-----
MIIDTjCCAjagAwIBAgIRALjoAGo5v3Ny7GZ5s+Q2yvswDQYJKoZIhvcNAQELBQAw
EzERMA8GA1UEAwwIQ2hhbmdlTWUwHhcNMjEwNDIwMDIzMDQwWhcNMjMwNzI0MDIz
MDQwWjAQMQ4wDAYDVQQDDAV0ZXN0MjCCASIwDQYJKoZIhvcNAQEBBQADggEPADCC
AQoCggEBALy69u7Qo+39am1T3oUFU90IBxMHoVaytPfanBJH8RETC/POWefkSCuF
UZZk5T7/esZ1+1ZuJ1+mZ8q7TXp3DSLQfm5uE0E0GERuF40IqEmKrzbK/IZQw3u9
3EaFlwNLxjk6FbeJJl2DKEhDEzOpVhn6Ap0HyeZL5YTtxzLO82eWlkwa6kQR5XlL
V5SMfZ4vOpEmfJrFSRU0cAYTw7SH8mQlkQQLE73JtAEwsMCqF+g1zs2EHZknpn2t
A8QSdM6pAHX5OLttFmXPtgJ4Iu1KyBFQ0/JeSLOObAYunvJFyljh+TuiUj+6kfxH
/l5Mg+DdaLmklMyVg8GeWiBAHDjpPJUCAwEAAaOBnzCBnDAJBgNVHRMEAjAAMB0G
A1UdDgQWBBTNGc7GQ8LnXjODig352VKJgws0rTBOBgNVHSMERzBFgBSJ5iY+2FqE
OkYox3O7AzZZIgtprKEXpBUwEzERMA8GA1UEAwwIQ2hhbmdlTWWCFEWpYaBchequ
XEVYf3Rh3P7dXkDNMBMGA1UdJQQMMAoGCCsGAQUFBwMCMAsGA1UdDwQEAwIHgDAN
BgkqhkiG9w0BAQsFAAOCAQEAijAMoUMd6jH+Mot4vqaMs+eNxZ1kbdF+Zf/fnRb+
jiPW8bxY438PsEddy2ikpRdIcpq/6EhF9Bs0gqaEhCWuo7pfmViMXeuyT0aaF3OU
vq/0s8FUVFAXIMO8kY67PdTiSrtXQLJwBoJyqYL5g9SyWEeMyLxgyuL2mnzuVDbH
ZlU65nN2RdHCIq7NiE+9RalDUGKUCoARPmWEv9xaFxWhJOmjMA8mvUZUIO1S5G5x
FAMUQA3cNvxtG24C7JaUcXy2L/DrI+EXaTg7dMYVNl2i+eMIqbPi95eHgIwEkZU+
pDAekMt/Y43y3dcIyG5faXK2/eSzFXbtL1/3Luew+xUZWw==
-----END CERTIFICATE-----
