Certificate:
    Data:
        Version: 3 (0x2)
        Serial Number:
            c5:99:8f:6a:6b:44:e3:c8:d0:27:cf:1c:7c:73:31:37
        Signature Algorithm: sha256WithRSAEncryption
        Issuer: CN=ChangeMe
        Validity
            Not Before: Apr 26 08:21:26 2021 GMT
            Not After : Jul 30 08:21:26 2023 GMT
        Subject: CN=qqq
        Subject Public Key Info:
            Public Key Algorithm: rsaEncryption
                RSA Public-Key: (2048 bit)
                Modulus:
                    00:a9:67:ef:02:17:68:6a:73:b7:2e:9e:9d:f9:54:
                    8b:34:7a:13:7d:c5:fc:2e:57:04:01:e0:78:e6:d3:
                    9c:21:52:2f:81:4e:d8:10:46:63:3c:4c:9b:f7:4d:
                    64:44:58:7a:3f:28:c3:d8:b0:b3:9e:5e:56:8c:eb:
                    3a:85:43:15:80:87:fb:65:6d:5d:06:4b:82:31:01:
                    91:69:c2:e2:e6:05:24:0d:f8:ed:1b:d5:b7:4a:3f:
                    1a:89:37:5a:3b:b8:cd:62:d8:40:fd:b5:43:00:af:
                    6b:82:de:22:d7:4f:a8:25:0f:a7:62:42:26:45:5c:
                    24:a0:bd:ad:f1:b3:8c:96:8b:3c:fa:51:0b:c1:65:
                    b0:94:eb:e9:f3:2e:d3:5b:9b:16:0e:78:68:88:82:
                    a6:5b:65:94:1a:19:4c:db:0d:a7:b7:52:05:0e:48:
                    3a:e2:4c:84:10:71:fa:f7:ef:de:9f:8f:ac:0e:db:
                    e3:2f:cc:b0:9a:fb:04:53:3f:2d:ea:3c:af:98:8a:
                    2c:51:29:35:95:59:01:b5:c9:2f:f5:4f:d7:aa:fe:
                    47:df:b1:e6:ea:22:41:b7:2f:39:13:81:b1:1b:aa:
                    63:41:8a:67:11:33:63:b4:8a:e1:1b:74:cf:01:f4:
                    55:bb:fa:df:bc:62:ce:7c:b6:c8:45:22:56:e3:48:
                    9d:af
                Exponent: 65537 (0x10001)
        X509v3 extensions:
            X509v3 Basic Constraints: 
                CA:FALSE
            X509v3 Subject Key Identifier: 
                D2:75:74:34:B5:AB:DF:E1:5B:86:36:6C:3F:AB:9C:50:AA:CA:7F:79
            X509v3 Authority Key Identifier: 
                keyid:89:E6:26:3E:D8:5A:84:3A:46:28:C7:73:BB:03:36:59:22:0B:69:AC
                DirName:/CN=ChangeMe
                serial:45:A9:61:A0:5C:85:EA:AE:5C:45:58:7F:74:61:DC:FE:DD:5E:40:CD

            X509v3 Extended Key Usage: 
                TLS Web Client Authentication
            X509v3 Key Usage: 
                Digital Signature
    Signature Algorithm: sha256WithRSAEncryption
         a2:a5:92:77:d4:4f:d2:3f:86:a6:a5:a0:34:33:cc:ad:d6:77:
         5b:68:49:64:c9:97:1f:92:a3:f3:a7:45:dc:49:d7:d7:8f:53:
         d5:82:a3:b3:a6:31:ca:47:67:9d:f6:87:52:b4:16:6d:92:75:
         df:cc:45:c2:fa:0d:21:7c:d4:94:2d:69:9e:bf:b3:f2:60:3d:
         4d:28:2a:46:66:36:43:4e:e4:09:37:50:28:1c:88:a1:24:0e:
         6a:aa:fb:d0:2c:7d:cc:e0:54:11:ad:81:2b:77:5d:ac:68:64:
         47:d9:20:c8:5f:d3:86:48:f7:d2:09:6f:c2:e6:87:84:3a:cb:
         f6:2b:9b:4b:18:d0:e0:e3:43:a2:7e:8c:23:46:ae:15:eb:4e:
         cc:bc:2f:5c:db:3d:6d:d6:62:48:50:4f:e5:d4:67:fa:18:0d:
         61:d2:26:88:35:73:60:96:a0:fd:ae:75:3a:6e:70:75:07:2a:
         59:34:ad:4c:6e:b6:33:46:8c:98:2d:55:ca:c7:a1:e2:5f:45:
         d1:76:12:df:8d:5e:68:fd:38:1a:3f:ca:cd:11:ad:b7:cf:68:
         b3:1b:01:67:75:6d:a8:96:3c:2d:4b:71:5e:0a:91:b0:ee:52:
         1d:68:de:01:d3:5e:c6:b4:81:c1:cf:43:62:c5:af:46:ef:ec:
         89:be:e8:ae
-----BEGIN CERTIFICATE-----
MIIDTDCCAjSgAwIBAgIRAMWZj2prROPI0CfPHHxzMTcwDQYJKoZIhvcNAQELBQAw
EzERMA8GA1UEAwwIQ2hhbmdlTWUwHhcNMjEwNDI2MDgyMTI2WhcNMjMwNzMwMDgy
MTI2WjAOMQwwCgYDVQQDDANxcXEwggEiMA0GCSqGSIb3DQEBAQUAA4IBDwAwggEK
AoIBAQCpZ+8CF2hqc7cunp35VIs0ehN9xfwuVwQB4Hjm05whUi+BTtgQRmM8TJv3
TWREWHo/KMPYsLOeXlaM6zqFQxWAh/tlbV0GS4IxAZFpwuLmBSQN+O0b1bdKPxqJ
N1o7uM1i2ED9tUMAr2uC3iLXT6glD6diQiZFXCSgva3xs4yWizz6UQvBZbCU6+nz
LtNbmxYOeGiIgqZbZZQaGUzbDae3UgUOSDriTIQQcfr3796fj6wO2+MvzLCa+wRT
Py3qPK+YiixRKTWVWQG1yS/1T9eq/kffsebqIkG3LzkTgbEbqmNBimcRM2O0iuEb
dM8B9FW7+t+8Ys58tshFIlbjSJ2vAgMBAAGjgZ8wgZwwCQYDVR0TBAIwADAdBgNV
HQ4EFgQU0nV0NLWr3+FbhjZsP6ucUKrKf3kwTgYDVR0jBEcwRYAUieYmPthahDpG
KMdzuwM2WSILaayhF6QVMBMxETAPBgNVBAMMCENoYW5nZU1lghRFqWGgXIXqrlxF
WH90Ydz+3V5AzTATBgNVHSUEDDAKBggrBgEFBQcDAjALBgNVHQ8EBAMCB4AwDQYJ
KoZIhvcNAQELBQADggEBAKKlknfUT9I/hqaloDQzzK3Wd1toSWTJlx+So/OnRdxJ
19ePU9WCo7OmMcpHZ532h1K0Fm2Sdd/MRcL6DSF81JQtaZ6/s/JgPU0oKkZmNkNO
5Ak3UCgciKEkDmqq+9AsfczgVBGtgSt3XaxoZEfZIMhf04ZI99IJb8Lmh4Q6y/Yr
m0sY0ODjQ6J+jCNGrhXrTsy8L1zbPW3WYkhQT+XUZ/oYDWHSJog1c2CWoP2udTpu
cHUHKlk0rUxutjNGjJgtVcrHoeJfRdF2Et+NXmj9OBo/ys0RrbfPaLMbAWd1baiW
PC1LcV4KkbDuUh1o3gHTXsa0gcHPQ2LFr0bv7Im+6K4=
-----END CERTIFICATE-----
