Certificate:
    Data:
        Version: 3 (0x2)
        Serial Number:
            e6:af:76:15:15:db:06:62:39:15:fa:bd:a2:97:a3:40
        Signature Algorithm: sha256WithRSAEncryption
        Issuer: CN=ChangeMe
        Validity
            Not Before: Apr 20 04:46:19 2021 GMT
            Not After : Jul 24 04:46:19 2023 GMT
        Subject: CN=tes4
        Subject Public Key Info:
            Public Key Algorithm: rsaEncryption
                RSA Public-Key: (2048 bit)
                Modulus:
                    00:c9:c1:63:0f:f8:ca:72:f9:aa:18:e0:e4:58:ef:
                    ce:6f:41:18:2e:05:f9:26:bc:34:a0:3a:d0:79:2b:
                    94:18:cd:6a:8c:7a:41:9c:b6:fc:fa:23:97:9e:7e:
                    29:5f:ea:6e:65:0f:c2:1b:5c:14:35:18:fa:81:d2:
                    04:1a:d8:22:9a:a5:8a:05:f7:05:f3:75:5e:2b:63:
                    5b:ea:a8:9b:00:57:a2:6b:6c:a6:13:3e:8c:03:a4:
                    e6:85:52:72:49:e8:45:08:47:44:22:c6:1a:6d:ec:
                    c3:a9:6a:53:38:7b:6c:f2:ae:3a:b4:59:c0:a1:ec:
                    db:ce:28:b4:68:31:2e:81:07:c9:20:2e:71:4c:41:
                    89:9c:19:04:c7:ad:e7:fb:ef:3e:e7:f6:48:b7:33:
                    f8:eb:2c:6d:47:63:d9:c7:50:a2:15:c0:ee:db:a8:
                    35:ea:7f:9c:3f:e5:32:ec:5f:6d:76:8f:7e:b7:52:
                    90:e5:c2:c5:34:91:b9:cb:61:3a:99:43:5f:75:84:
                    35:64:9f:61:8b:1a:f7:6b:5a:18:ba:96:f5:60:ba:
                    53:85:aa:bd:1a:b0:ce:20:a8:60:9b:ec:1e:cd:e8:
                    ec:d5:1f:e4:60:d7:1f:10:7a:c3:95:1d:ca:f0:e4:
                    78:ac:49:24:c8:72:f9:09:f4:4e:36:af:ef:f0:d5:
                    42:0d
                Exponent: 65537 (0x10001)
        X509v3 extensions:
            X509v3 Basic Constraints: 
                CA:FALSE
            X509v3 Subject Key Identifier: 
                04:E0:AE:58:70:8A:4D:53:2B:5C:2D:9E:2E:F0:86:B0:4A:B2:D9:FF
            X509v3 Authority Key Identifier: 
                keyid:89:E6:26:3E:D8:5A:84:3A:46:28:C7:73:BB:03:36:59:22:0B:69:AC
                DirName:/CN=ChangeMe
                serial:45:A9:61:A0:5C:85:EA:AE:5C:45:58:7F:74:61:DC:FE:DD:5E:40:CD

            X509v3 Extended Key Usage: 
                TLS Web Client Authentication
            X509v3 Key Usage: 
                Digital Signature
    Signature Algorithm: sha256WithRSAEncryption
         1a:11:fa:a3:a5:36:94:c5:6f:1b:80:80:0b:4c:78:79:72:3d:
         3b:c5:3e:4c:bb:4b:8c:b7:97:6c:02:4a:44:83:55:0c:00:32:
         99:ad:5c:aa:2e:ba:a1:1c:4d:6d:05:de:67:c8:da:9f:95:76:
         f5:7f:65:66:d0:0f:f7:8b:31:04:a7:84:53:01:a5:8e:12:5e:
         2e:10:df:0a:52:d7:1a:ac:41:8c:d8:88:f8:b5:a9:c7:48:fe:
         8c:f5:15:c0:61:02:5a:46:77:b8:ec:4d:98:75:7d:37:13:4e:
         2d:b4:b1:53:97:3a:46:20:f0:47:e0:ae:4d:0c:44:f6:93:05:
         e1:57:44:40:b8:17:0e:4e:c0:f8:ee:82:ab:dd:4a:a1:2f:d6:
         0d:b7:95:74:6b:fa:32:8e:1f:0e:e3:2f:c5:2b:7f:80:1d:d9:
         9b:d8:78:1d:10:c5:86:54:c7:ee:fe:ab:79:03:3f:89:8f:7d:
         dd:ef:21:63:48:e9:6b:f7:92:ed:a6:03:d0:5f:9b:04:51:91:
         47:64:d7:a2:09:77:da:49:b3:2f:21:d6:6d:d8:90:2e:21:3c:
         bc:59:f8:4e:5d:f6:5a:fb:ff:d5:f9:d7:e1:f6:ba:53:06:5e:
         61:97:9c:8a:43:ef:88:cd:de:69:08:02:96:83:86:61:c9:73:
         01:ae:2e:38
-----BEGIN CERTIFICATE-----
MIIDTTCCAjWgAwIBAgIRAOavdhUV2wZiORX6vaKXo0AwDQYJKoZIhvcNAQELBQAw
EzERMA8GA1UEAwwIQ2hhbmdlTWUwHhcNMjEwNDIwMDQ0NjE5WhcNMjMwNzI0MDQ0
NjE5WjAPMQ0wCwYDVQQDDAR0ZXM0MIIBIjANBgkqhkiG9w0BAQEFAAOCAQ8AMIIB
CgKCAQEAycFjD/jKcvmqGODkWO/Ob0EYLgX5Jrw0oDrQeSuUGM1qjHpBnLb8+iOX
nn4pX+puZQ/CG1wUNRj6gdIEGtgimqWKBfcF83VeK2Nb6qibAFeia2ymEz6MA6Tm
hVJySehFCEdEIsYabezDqWpTOHts8q46tFnAoezbzii0aDEugQfJIC5xTEGJnBkE
x63n++8+5/ZItzP46yxtR2PZx1CiFcDu26g16n+cP+Uy7F9tdo9+t1KQ5cLFNJG5
y2E6mUNfdYQ1ZJ9hixr3a1oYupb1YLpThaq9GrDOIKhgm+wezejs1R/kYNcfEHrD
lR3K8OR4rEkkyHL5CfRONq/v8NVCDQIDAQABo4GfMIGcMAkGA1UdEwQCMAAwHQYD
VR0OBBYEFATgrlhwik1TK1wtni7whrBKstn/ME4GA1UdIwRHMEWAFInmJj7YWoQ6
RijHc7sDNlkiC2msoRekFTATMREwDwYDVQQDDAhDaGFuZ2VNZYIURalhoFyF6q5c
RVh/dGHc/t1eQM0wEwYDVR0lBAwwCgYIKwYBBQUHAwIwCwYDVR0PBAQDAgeAMA0G
CSqGSIb3DQEBCwUAA4IBAQAaEfqjpTaUxW8bgIALTHh5cj07xT5Mu0uMt5dsAkpE
g1UMADKZrVyqLrqhHE1tBd5nyNqflXb1f2Vm0A/3izEEp4RTAaWOEl4uEN8KUtca
rEGM2Ij4tanHSP6M9RXAYQJaRne47E2YdX03E04ttLFTlzpGIPBH4K5NDET2kwXh
V0RAuBcOTsD47oKr3UqhL9YNt5V0a/oyjh8O4y/FK3+AHdmb2HgdEMWGVMfu/qt5
Az+Jj33d7yFjSOlr95LtpgPQX5sEUZFHZNeiCXfaSbMvIdZt2JAuITy8WfhOXfZa
+//V+dfh9rpTBl5hl5yKQ++Izd5pCAKWg4ZhyXMBri44
-----END CERTIFICATE-----
