Certificate:
    Data:
        Version: 3 (0x2)
        Serial Number:
            e9:0a:9f:16:f3:64:9a:d6:db:79:c0:02:25:d8:99:8b
        Signature Algorithm: sha256WithRSAEncryption
        Issuer: CN=ChangeMe
        Validity
            Not Before: Apr 21 00:52:45 2021 GMT
            Not After : Jul 25 00:52:45 2023 GMT
        Subject: CN=123
        Subject Public Key Info:
            Public Key Algorithm: rsaEncryption
                RSA Public-Key: (2048 bit)
                Modulus:
                    00:ca:2d:ed:0f:65:93:a3:b8:10:4e:e5:47:d1:95:
                    59:61:f6:22:46:69:31:02:a4:ee:ba:43:00:5e:f8:
                    05:f1:39:e6:82:8c:1b:58:44:b0:32:8b:9e:4d:2b:
                    2a:2f:cc:22:0b:37:bc:41:21:e4:7c:e5:8a:2e:39:
                    5c:0c:21:3b:13:2f:f0:57:6b:05:df:b2:61:67:08:
                    33:ce:2c:52:43:e0:9d:56:2e:da:e5:41:e5:01:a8:
                    d7:32:fc:81:e7:80:ad:b2:de:5d:11:00:be:bc:cf:
                    b0:bd:33:f2:5b:13:7f:a4:21:9f:67:ee:13:37:80:
                    2a:b1:2e:a4:a4:02:36:d1:18:08:87:5f:d8:24:68:
                    df:dc:74:76:25:cb:54:09:fd:2f:f8:5f:fc:75:2d:
                    6a:43:36:ac:34:98:f1:a8:ec:8a:7c:2b:b2:fd:cf:
                    4e:df:dd:96:dc:50:d4:d5:ee:a7:28:c6:44:2c:30:
                    31:ed:e4:b6:f9:9a:c7:a7:f2:a1:5a:1e:6c:1e:36:
                    cb:df:82:64:1e:f3:ab:9c:4c:6b:c4:11:59:a8:0e:
                    49:37:95:55:90:da:2c:15:b2:51:b4:da:05:2b:cc:
                    ec:63:5d:cc:b8:40:16:52:75:cb:60:b3:5a:d5:b3:
                    ff:38:ce:2f:ba:6f:99:e9:61:5e:6b:e0:a0:c3:86:
                    c7:71
                Exponent: 65537 (0x10001)
        X509v3 extensions:
            X509v3 Basic Constraints: 
                CA:FALSE
            X509v3 Subject Key Identifier: 
                75:50:B8:2D:74:31:89:1A:93:85:3D:98:78:5A:AA:12:38:C2:21:EA
            X509v3 Authority Key Identifier: 
                keyid:89:E6:26:3E:D8:5A:84:3A:46:28:C7:73:BB:03:36:59:22:0B:69:AC
                DirName:/CN=ChangeMe
                serial:45:A9:61:A0:5C:85:EA:AE:5C:45:58:7F:74:61:DC:FE:DD:5E:40:CD

            X509v3 Extended Key Usage: 
                TLS Web Client Authentication
            X509v3 Key Usage: 
                Digital Signature
    Signature Algorithm: sha256WithRSAEncryption
         32:bd:25:0d:30:6e:17:69:08:b8:be:d0:e5:4a:f1:24:94:81:
         2f:ed:88:70:5b:93:cb:f7:6b:6f:01:63:fe:06:09:ef:6c:70:
         87:3b:76:ad:55:88:f2:93:da:16:ac:47:d5:93:c3:bf:04:4f:
         95:28:d8:ea:14:42:8b:0f:60:b9:2a:1a:de:fa:97:8d:cc:8c:
         39:1c:c2:1b:fa:57:6f:0d:ba:75:75:22:06:10:46:aa:e9:a0:
         11:07:13:ac:a1:2e:75:a5:78:80:8b:23:b9:28:e6:f4:63:2d:
         36:7c:4c:bd:cf:11:e7:8d:f2:bb:f8:e5:b7:e0:47:d2:68:92:
         a4:fd:60:a5:ed:6c:13:a1:0d:ac:ff:f4:e1:bb:16:30:87:c1:
         17:b4:78:b9:06:32:43:78:90:a2:7d:9f:57:6b:cd:fd:ad:b2:
         c0:fa:e7:5a:5c:2a:dc:02:56:c9:e1:11:a5:87:be:34:c8:02:
         a5:09:d1:50:79:8f:99:25:5e:b8:9a:1e:1d:2a:14:08:1a:76:
         a7:d9:32:03:a2:c8:1f:21:88:7d:d6:51:a8:13:f3:9f:3a:ce:
         ef:79:99:f2:37:a9:4a:ab:ff:ab:6a:c4:91:24:9d:8b:f9:77:
         40:60:8a:0f:e2:bb:85:00:ca:cf:0e:0c:7c:d1:cc:e7:b2:fc:
         de:72:a9:08
-----BEGIN CERTIFICATE-----
MIIDTDCCAjSgAwIBAgIRAOkKnxbzZJrW23nAAiXYmYswDQYJKoZIhvcNAQELBQAw
EzERMA8GA1UEAwwIQ2hhbmdlTWUwHhcNMjEwNDIxMDA1MjQ1WhcNMjMwNzI1MDA1
MjQ1WjAOMQwwCgYDVQQDDAMxMjMwggEiMA0GCSqGSIb3DQEBAQUAA4IBDwAwggEK
AoIBAQDKLe0PZZOjuBBO5UfRlVlh9iJGaTECpO66QwBe+AXxOeaCjBtYRLAyi55N
KyovzCILN7xBIeR85YouOVwMITsTL/BXawXfsmFnCDPOLFJD4J1WLtrlQeUBqNcy
/IHngK2y3l0RAL68z7C9M/JbE3+kIZ9n7hM3gCqxLqSkAjbRGAiHX9gkaN/cdHYl
y1QJ/S/4X/x1LWpDNqw0mPGo7Ip8K7L9z07f3ZbcUNTV7qcoxkQsMDHt5Lb5msen
8qFaHmweNsvfgmQe86ucTGvEEVmoDkk3lVWQ2iwVslG02gUrzOxjXcy4QBZSdctg
s1rVs/84zi+6b5npYV5r4KDDhsdxAgMBAAGjgZ8wgZwwCQYDVR0TBAIwADAdBgNV
HQ4EFgQUdVC4LXQxiRqThT2YeFqqEjjCIeowTgYDVR0jBEcwRYAUieYmPthahDpG
KMdzuwM2WSILaayhF6QVMBMxETAPBgNVBAMMCENoYW5nZU1lghRFqWGgXIXqrlxF
WH90Ydz+3V5AzTATBgNVHSUEDDAKBggrBgEFBQcDAjALBgNVHQ8EBAMCB4AwDQYJ
KoZIhvcNAQELBQADggEBADK9JQ0wbhdpCLi+0OVK8SSUgS/tiHBbk8v3a28BY/4G
Ce9scIc7dq1ViPKT2hasR9WTw78ET5Uo2OoUQosPYLkqGt76l43MjDkcwhv6V28N
unV1IgYQRqrpoBEHE6yhLnWleICLI7ko5vRjLTZ8TL3PEeeN8rv45bfgR9JokqT9
YKXtbBOhDaz/9OG7FjCHwRe0eLkGMkN4kKJ9n1drzf2tssD651pcKtwCVsnhEaWH
vjTIAqUJ0VB5j5klXriaHh0qFAgadqfZMgOiyB8hiH3WUagT8586zu95mfI3qUqr
/6tqxJEknYv5d0Bgig/iu4UAys8ODHzRzOey/N5yqQg=
-----END CERTIFICATE-----
