Certificate:
    Data:
        Version: 3 (0x2)
        Serial Number:
            eb:85:13:2c:3b:1a:72:ea:e0:1a:f2:76:e2:94:52:b8
    Signature Algorithm: sha256WithRSAEncryption
        Issuer: CN=ChangeMe
        Validity
            Not Before: Oct 20 08:04:23 2021 GMT
            Not After : Jun 29 08:04:23 2035 GMT
        Subject: CN=hm-1ad1de229b0346baa683c33c9b1d4d76
        Subject Public Key Info:
            Public Key Algorithm: rsaEncryption
                Public-Key: (2048 bit)
                Modulus:
                    00:ae:3c:17:55:bd:a0:d0:0d:5a:a9:9d:31:9a:07:
                    83:c6:29:48:bd:c1:ef:46:8f:6e:a7:f2:fe:4d:0e:
                    56:5b:ee:25:c0:43:08:a2:b9:06:f1:73:8c:fa:66:
                    eb:47:8a:b2:c7:76:fe:a2:94:c7:98:79:ae:10:cb:
                    ca:0c:fd:91:e8:95:c0:02:bd:2b:52:06:16:4c:af:
                    4a:16:40:34:f6:77:24:80:2a:cf:d6:29:56:7c:81:
                    c6:1b:29:a7:9f:f0:c3:ed:f8:01:3a:7d:8c:96:32:
                    51:52:9c:1b:e9:a8:36:e2:db:a5:3a:cd:78:8c:72:
                    37:3a:f0:af:8d:23:8e:32:b5:6c:2e:04:f6:f6:5a:
                    02:95:b9:48:73:30:b2:6d:ca:96:67:65:de:47:29:
                    b1:9a:6d:cf:88:33:89:8b:46:10:5d:71:fa:92:1e:
                    a1:44:6d:26:bd:e3:f6:86:56:ac:5d:04:4f:47:03:
                    3b:7c:a5:97:91:0c:f2:1d:ca:e7:e3:09:66:aa:f2:
                    f1:0a:c2:54:05:db:a5:a2:ae:11:af:f3:a6:e0:06:
                    c3:16:c1:32:30:19:fa:33:7a:3b:bf:52:82:c8:8d:
                    93:af:13:d0:56:ca:4c:7f:7b:31:3f:ba:3e:7e:6e:
                    e1:6f:36:7a:72:e3:be:50:d2:3b:d9:d1:8b:07:d6:
                    a2:3b
                Exponent: 65537 (0x10001)
        X509v3 extensions:
            X509v3 Basic Constraints: 
                CA:FALSE
            X509v3 Subject Key Identifier: 
                EA:8F:D0:A2:F9:02:E5:B1:24:5A:46:16:95:EE:0C:26:AE:96:9A:B6
            X509v3 Authority Key Identifier: 
                keyid:89:E6:26:3E:D8:5A:84:3A:46:28:C7:73:BB:03:36:59:22:0B:69:AC
                DirName:/CN=ChangeMe
                serial:45:A9:61:A0:5C:85:EA:AE:5C:45:58:7F:74:61:DC:FE:DD:5E:40:CD

            X509v3 Extended Key Usage: 
                TLS Web Client Authentication
            X509v3 Key Usage: 
                Digital Signature
    Signature Algorithm: sha256WithRSAEncryption
         69:8b:59:94:d0:0d:ac:5e:df:1d:cf:f7:0d:97:a1:b8:4d:db:
         07:8d:3c:93:d3:5b:12:09:c6:45:28:67:d9:6d:d8:2b:40:14:
         e9:90:61:7e:99:d5:13:67:0e:0f:69:e1:d5:4c:0e:74:f7:b5:
         6c:70:8b:5c:54:32:0a:e4:9f:f2:26:e4:6a:1f:bf:aa:0d:c6:
         5e:3f:22:47:1d:bf:ef:45:55:19:bf:d0:d1:57:5e:cb:8f:ed:
         82:f8:89:27:6e:23:06:4f:3f:f4:9c:9d:f0:40:e1:56:ec:2e:
         6c:a2:c0:1b:18:25:cc:ba:c2:01:e4:f7:f3:51:e1:63:30:28:
         79:e7:c0:30:3b:34:9f:5b:1f:69:8e:73:b9:05:78:db:88:fd:
         5b:48:83:86:d2:b1:93:c9:8b:c1:97:f6:66:fe:1c:64:d6:c0:
         ff:9a:a6:b2:c4:17:ac:0d:81:f4:87:03:84:e5:ea:f3:2c:41:
         91:59:06:f3:d8:0a:ea:f1:26:5c:02:db:ce:c4:10:c8:95:af:
         da:9f:19:d7:9b:2e:c6:a8:c7:7f:48:50:90:99:7a:0c:16:62:
         f3:97:16:98:17:e5:59:79:3e:d9:c2:af:fe:3b:cc:b7:12:de:
         ce:63:84:7b:33:ae:25:a8:2c:2d:3b:cf:5b:a0:f4:10:00:87:
         e6:4c:52:1b
-----BEGIN CERTIFICATE-----
MIIDbDCCAlSgAwIBAgIRAOuFEyw7GnLq4BryduKUUrgwDQYJKoZIhvcNAQELBQAw
EzERMA8GA1UEAwwIQ2hhbmdlTWUwHhcNMjExMDIwMDgwNDIzWhcNMzUwNjI5MDgw
NDIzWjAuMSwwKgYDVQQDDCNobS0xYWQxZGUyMjliMDM0NmJhYTY4M2MzM2M5YjFk
NGQ3NjCCASIwDQYJKoZIhvcNAQEBBQADggEPADCCAQoCggEBAK48F1W9oNANWqmd
MZoHg8YpSL3B70aPbqfy/k0OVlvuJcBDCKK5BvFzjPpm60eKssd2/qKUx5h5rhDL
ygz9keiVwAK9K1IGFkyvShZANPZ3JIAqz9YpVnyBxhspp5/ww+34ATp9jJYyUVKc
G+moNuLbpTrNeIxyNzrwr40jjjK1bC4E9vZaApW5SHMwsm3Klmdl3kcpsZptz4gz
iYtGEF1x+pIeoURtJr3j9oZWrF0ET0cDO3yll5EM8h3K5+MJZqry8QrCVAXbpaKu
Ea/zpuAGwxbBMjAZ+jN6O79SgsiNk68T0FbKTH97MT+6Pn5u4W82enLjvlDSO9nR
iwfWojsCAwEAAaOBnzCBnDAJBgNVHRMEAjAAMB0GA1UdDgQWBBTqj9Ci+QLlsSRa
RhaV7gwmrpaatjBOBgNVHSMERzBFgBSJ5iY+2FqEOkYox3O7AzZZIgtprKEXpBUw
EzERMA8GA1UEAwwIQ2hhbmdlTWWCFEWpYaBchequXEVYf3Rh3P7dXkDNMBMGA1Ud
JQQMMAoGCCsGAQUFBwMCMAsGA1UdDwQEAwIHgDANBgkqhkiG9w0BAQsFAAOCAQEA
aYtZlNANrF7fHc/3DZehuE3bB408k9NbEgnGRShn2W3YK0AU6ZBhfpnVE2cOD2nh
1UwOdPe1bHCLXFQyCuSf8ibkah+/qg3GXj8iRx2/70VVGb/Q0Vdey4/tgviJJ24j
Bk8/9Jyd8EDhVuwubKLAGxglzLrCAeT381HhYzAoeefAMDs0n1sfaY5zuQV424j9
W0iDhtKxk8mLwZf2Zv4cZNbA/5qmssQXrA2B9IcDhOXq8yxBkVkG89gK6vEmXALb
zsQQyJWv2p8Z15suxqjHf0hQkJl6DBZi85cWmBflWXk+2cKv/jvMtxLezmOEezOu
JagsLTvPW6D0EACH5kxSGw==
-----END CERTIFICATE-----
