Certificate:
    Data:
        Version: 3 (0x2)
        Serial Number:
            f3:e4:6e:67:43:64:51:1d:99:6d:a2:ad:c2:61:81:9c
    Signature Algorithm: sha256WithRSAEncryption
        Issuer: CN=ChangeMe
        Validity
            Not Before: Oct 18 07:22:14 2021 GMT
            Not After : Jan 21 07:22:14 2024 GMT
        Subject: CN=hm-test01.ovpn
        Subject Public Key Info:
            Public Key Algorithm: rsaEncryption
                Public-Key: (2048 bit)
                Modulus:
                    00:df:58:1f:02:42:e0:eb:09:13:b2:f3:e5:0a:bd:
                    cc:dc:60:31:06:72:e6:a2:09:c7:a3:ff:e9:22:af:
                    7c:b0:96:37:07:6b:6f:53:ee:c1:04:b0:78:4a:09:
                    ce:5c:06:f3:af:ee:47:33:d1:41:e6:67:7f:19:a5:
                    cb:e3:c8:fb:79:a6:6a:98:14:a8:eb:13:43:d5:dc:
                    bb:30:b1:9a:e5:99:8a:69:b7:d9:c4:84:be:d1:54:
                    2b:c6:aa:21:c7:5d:ea:3f:1f:78:65:86:b1:83:1f:
                    74:f2:c9:9d:9b:82:ae:2d:77:ce:f2:c3:43:e2:d1:
                    74:6c:9f:1b:4a:98:4e:4b:ff:db:3f:67:b8:bf:20:
                    f7:e8:e5:38:ac:2c:59:90:01:db:2c:b2:91:bf:ea:
                    e0:37:3b:8a:24:3f:53:e2:e6:91:f4:35:f5:a4:e3:
                    17:92:bd:18:f2:50:84:ca:75:b6:fb:26:1e:25:62:
                    62:52:34:38:0b:32:3e:ff:52:1b:28:15:e2:2c:ef:
                    c2:57:9c:53:b2:3a:90:39:c0:c1:a9:a5:b0:9f:f2:
                    1b:aa:47:07:5b:d3:8f:03:55:bc:56:ba:74:01:ce:
                    45:da:8a:8a:52:25:5c:d2:f6:e4:cd:16:ff:11:47:
                    84:27:13:b0:f5:d1:48:39:ed:ba:c6:07:58:fb:99:
                    d6:99
                Exponent: 65537 (0x10001)
        X509v3 extensions:
            X509v3 Basic Constraints: 
                CA:FALSE
            X509v3 Subject Key Identifier: 
                AF:31:33:D0:97:76:E4:32:30:77:70:9F:18:91:24:96:56:F7:05:CF
            X509v3 Authority Key Identifier: 
                keyid:89:E6:26:3E:D8:5A:84:3A:46:28:C7:73:BB:03:36:59:22:0B:69:AC
                DirName:/CN=ChangeMe
                serial:45:A9:61:A0:5C:85:EA:AE:5C:45:58:7F:74:61:DC:FE:DD:5E:40:CD

            X509v3 Extended Key Usage: 
                TLS Web Client Authentication
            X509v3 Key Usage: 
                Digital Signature
    Signature Algorithm: sha256WithRSAEncryption
         83:fa:b5:80:88:a5:23:05:2e:ee:e6:0f:4c:9c:f4:5b:f4:04:
         af:73:c7:5e:2f:c1:ab:ad:df:cd:9b:81:1b:6e:58:b3:8a:9b:
         fd:c9:0f:96:46:56:19:78:a9:92:3c:bb:9a:b7:25:23:83:24:
         70:27:01:5b:ab:1e:41:65:78:32:2d:14:cc:ca:3e:a3:cf:5f:
         ec:7c:6c:f4:e8:54:25:b2:13:60:5c:e8:d7:e9:91:65:c6:30:
         86:2c:92:b5:90:9d:ac:d4:a4:8a:fa:71:da:2d:8e:b7:4a:f7:
         ef:f9:25:7f:0e:52:09:38:ea:c5:64:81:43:cd:fb:88:51:08:
         1f:0e:2f:fa:16:65:6e:00:a7:f9:f4:95:17:12:c1:a1:4a:5d:
         40:b0:28:d5:7b:14:17:94:fd:82:c4:34:78:35:83:41:51:6d:
         7e:e3:27:dd:38:24:39:30:7b:5c:33:a7:49:6c:cd:87:2d:29:
         43:c3:3e:55:9b:a8:2b:fe:33:16:1a:93:bc:03:3a:03:8f:5e:
         c9:98:90:43:cf:21:71:69:57:17:62:4d:bf:0e:e5:1d:df:54:
         3b:85:13:7f:b1:a5:37:97:ca:5d:70:e9:14:e1:87:28:14:46:
         c7:c7:56:6b:ee:75:29:6c:1b:b4:37:51:6a:d1:0e:e4:8b:f3:
         78:c8:0d:af
-----BEGIN CERTIFICATE-----
MIIDVzCCAj+gAwIBAgIRAPPkbmdDZFEdmW2ircJhgZwwDQYJKoZIhvcNAQELBQAw
EzERMA8GA1UEAwwIQ2hhbmdlTWUwHhcNMjExMDE4MDcyMjE0WhcNMjQwMTIxMDcy
MjE0WjAZMRcwFQYDVQQDDA5obS10ZXN0MDEub3ZwbjCCASIwDQYJKoZIhvcNAQEB
BQADggEPADCCAQoCggEBAN9YHwJC4OsJE7Lz5Qq9zNxgMQZy5qIJx6P/6SKvfLCW
Nwdrb1PuwQSweEoJzlwG86/uRzPRQeZnfxmly+PI+3mmapgUqOsTQ9XcuzCxmuWZ
imm32cSEvtFUK8aqIcdd6j8feGWGsYMfdPLJnZuCri13zvLDQ+LRdGyfG0qYTkv/
2z9nuL8g9+jlOKwsWZAB2yyykb/q4Dc7iiQ/U+LmkfQ19aTjF5K9GPJQhMp1tvsm
HiViYlI0OAsyPv9SGygV4izvwlecU7I6kDnAwamlsJ/yG6pHB1vTjwNVvFa6dAHO
RdqKilIlXNL25M0W/xFHhCcTsPXRSDntusYHWPuZ1pkCAwEAAaOBnzCBnDAJBgNV
HRMEAjAAMB0GA1UdDgQWBBSvMTPQl3bkMjB3cJ8YkSSWVvcFzzBOBgNVHSMERzBF
gBSJ5iY+2FqEOkYox3O7AzZZIgtprKEXpBUwEzERMA8GA1UEAwwIQ2hhbmdlTWWC
FEWpYaBchequXEVYf3Rh3P7dXkDNMBMGA1UdJQQMMAoGCCsGAQUFBwMCMAsGA1Ud
DwQEAwIHgDANBgkqhkiG9w0BAQsFAAOCAQEAg/q1gIilIwUu7uYPTJz0W/QEr3PH
Xi/Bq63fzZuBG25Ys4qb/ckPlkZWGXipkjy7mrclI4MkcCcBW6seQWV4Mi0UzMo+
o89f7Hxs9OhUJbITYFzo1+mRZcYwhiyStZCdrNSkivpx2i2Ot0r37/klfw5SCTjq
xWSBQ837iFEIHw4v+hZlbgCn+fSVFxLBoUpdQLAo1XsUF5T9gsQ0eDWDQVFtfuMn
3TgkOTB7XDOnSWzNhy0pQ8M+VZuoK/4zFhqTvAM6A49eyZiQQ88hcWlXF2JNvw7l
Hd9UO4UTf7GlN5fKXXDpFOGHKBRGx8dWa+51KWwbtDdRatEO5IvzeMgNrw==
-----END CERTIFICATE-----
