Certificate:
    Data:
        Version: 3 (0x2)
        Serial Number:
            fc:3d:93:d3:90:45:96:1b:7b:b6:94:da:88:56:c5:f1
        Signature Algorithm: sha256WithRSAEncryption
        Issuer: CN=ChangeMe
        Validity
            Not Before: Apr 20 08:58:23 2021 GMT
            Not After : Jul 24 08:58:23 2023 GMT
        Subject: CN=abc
        Subject Public Key Info:
            Public Key Algorithm: rsaEncryption
                RSA Public-Key: (2048 bit)
                Modulus:
                    00:ca:d8:32:d1:b3:31:13:81:3e:0d:3e:a5:4b:18:
                    69:b2:77:1c:33:71:02:d3:44:b5:16:1d:fc:fd:fe:
                    cb:cd:f2:86:f3:f6:d0:0c:a7:00:d9:52:f6:5c:45:
                    5c:fb:ba:ad:30:4f:7c:38:4e:2e:48:2e:d5:15:e1:
                    84:30:a2:aa:c4:6f:4f:f4:cf:d0:ee:e0:a3:6f:a8:
                    d1:a2:4d:fe:f7:70:f5:a6:7f:f9:65:03:c4:a0:ae:
                    ce:70:37:b8:34:2b:2f:b2:71:d4:d5:34:9d:f8:4a:
                    77:5c:59:5a:a3:cd:52:56:d1:c6:24:65:e4:7d:70:
                    a4:3e:f7:6a:26:89:16:4e:00:06:e5:b9:86:80:93:
                    10:db:10:0e:0a:b4:f6:ad:62:a0:d7:7a:a5:61:3e:
                    0e:87:f2:47:ff:d6:88:9e:40:b8:34:e1:9d:ce:b9:
                    13:b3:e9:01:37:71:b7:19:d0:7a:d0:c5:d0:ee:5f:
                    5a:0a:37:0a:c5:8f:67:80:70:d2:41:e2:9f:7e:ab:
                    44:6d:a2:13:d2:bd:45:d6:47:89:ae:58:f1:55:93:
                    46:1a:00:46:a3:68:80:f4:2e:f6:f1:19:63:70:62:
                    63:15:83:26:01:33:ea:7a:b6:8c:40:d4:92:0b:c8:
                    2d:74:17:13:0f:3f:b2:92:b5:bb:db:42:2d:3b:ea:
                    ae:77
                Exponent: 65537 (0x10001)
        X509v3 extensions:
            X509v3 Basic Constraints: 
                CA:FALSE
            X509v3 Subject Key Identifier: 
                41:99:F4:AF:51:57:B3:1D:ED:B7:30:8D:2D:D9:8D:D0:17:52:BF:5C
            X509v3 Authority Key Identifier: 
                keyid:89:E6:26:3E:D8:5A:84:3A:46:28:C7:73:BB:03:36:59:22:0B:69:AC
                DirName:/CN=ChangeMe
                serial:45:A9:61:A0:5C:85:EA:AE:5C:45:58:7F:74:61:DC:FE:DD:5E:40:CD

            X509v3 Extended Key Usage: 
                TLS Web Client Authentication
            X509v3 Key Usage: 
                Digital Signature
    Signature Algorithm: sha256WithRSAEncryption
         61:60:c3:76:52:c7:42:e9:32:b7:fc:a5:fd:fe:ba:88:05:c3:
         16:dd:04:8e:5a:cb:73:c5:0f:02:0f:6d:94:9f:31:fe:32:b8:
         48:43:77:2f:d6:a1:f1:e7:b7:80:e5:fc:39:8a:60:90:d0:65:
         61:72:e6:c3:fb:d7:07:e1:f2:a4:e7:49:8f:d9:4b:6a:40:fd:
         39:53:8a:6c:4c:43:5c:f6:a0:3c:58:0c:71:d7:b9:ab:cd:87:
         2f:fe:9f:4b:a4:f5:c3:46:34:4d:1e:63:8c:75:68:58:6f:9a:
         18:9c:75:29:bd:a0:f7:c7:78:f2:41:e5:29:04:2e:fc:f4:e9:
         07:e6:93:59:51:9b:4e:9a:26:88:37:bf:ef:7f:60:87:3c:67:
         b6:81:a8:70:07:75:53:02:34:29:8b:aa:66:af:4d:73:9b:d7:
         22:f8:60:44:57:3a:38:0c:11:e1:91:66:da:f1:4b:55:69:d8:
         49:57:fb:1d:80:18:d0:bd:79:9d:5d:99:b5:3a:8d:ea:17:07:
         7c:57:3b:ac:11:3a:f1:65:75:5e:76:bf:dd:50:ad:22:33:c0:
         36:ce:40:29:d4:3d:db:17:35:8f:97:0e:75:2d:26:8e:51:26:
         99:21:a5:00:1c:cb:e9:79:10:f6:98:1b:45:79:f5:9e:75:27:
         ab:33:02:70
-----BEGIN CERTIFICATE-----
MIIDTDCCAjSgAwIBAgIRAPw9k9OQRZYbe7aU2ohWxfEwDQYJKoZIhvcNAQELBQAw
EzERMA8GA1UEAwwIQ2hhbmdlTWUwHhcNMjEwNDIwMDg1ODIzWhcNMjMwNzI0MDg1
ODIzWjAOMQwwCgYDVQQDDANhYmMwggEiMA0GCSqGSIb3DQEBAQUAA4IBDwAwggEK
AoIBAQDK2DLRszETgT4NPqVLGGmydxwzcQLTRLUWHfz9/svN8obz9tAMpwDZUvZc
RVz7uq0wT3w4Ti5ILtUV4YQwoqrEb0/0z9Du4KNvqNGiTf73cPWmf/llA8Sgrs5w
N7g0Ky+ycdTVNJ34SndcWVqjzVJW0cYkZeR9cKQ+92omiRZOAAbluYaAkxDbEA4K
tPatYqDXeqVhPg6H8kf/1oieQLg04Z3OuROz6QE3cbcZ0HrQxdDuX1oKNwrFj2eA
cNJB4p9+q0RtohPSvUXWR4muWPFVk0YaAEajaID0LvbxGWNwYmMVgyYBM+p6toxA
1JILyC10FxMPP7KStbvbQi076q53AgMBAAGjgZ8wgZwwCQYDVR0TBAIwADAdBgNV
HQ4EFgQUQZn0r1FXsx3ttzCNLdmN0BdSv1wwTgYDVR0jBEcwRYAUieYmPthahDpG
KMdzuwM2WSILaayhF6QVMBMxETAPBgNVBAMMCENoYW5nZU1lghRFqWGgXIXqrlxF
WH90Ydz+3V5AzTATBgNVHSUEDDAKBggrBgEFBQcDAjALBgNVHQ8EBAMCB4AwDQYJ
KoZIhvcNAQELBQADggEBAGFgw3ZSx0LpMrf8pf3+uogFwxbdBI5ay3PFDwIPbZSf
Mf4yuEhDdy/WofHnt4Dl/DmKYJDQZWFy5sP71wfh8qTnSY/ZS2pA/TlTimxMQ1z2
oDxYDHHXuavNhy/+n0uk9cNGNE0eY4x1aFhvmhicdSm9oPfHePJB5SkELvz06Qfm
k1lRm06aJog3v+9/YIc8Z7aBqHAHdVMCNCmLqmavTXOb1yL4YERXOjgMEeGRZtrx
S1Vp2ElX+x2AGNC9eZ1dmbU6jeoXB3xXO6wROvFldV52v91QrSIzwDbOQCnUPdsX
NY+XDnUtJo5RJpkhpQAcy+l5EPaYG0V59Z51J6szAnA=
-----END CERTIFICATE-----
