Certificate:
    Data:
        Version: 3 (0x2)
        Serial Number:
            18:fb:4c:d6:92:60:09:be:a0:85:f8:70:a3:1e:13:6b
        Signature Algorithm: sha256WithRSAEncryption
        Issuer: CN=ChangeMe
        Validity
            Not Before: Apr 20 02:25:49 2021 GMT
            Not After : Jul 24 02:25:49 2023 GMT
        Subject: CN=test2
        Subject Public Key Info:
            Public Key Algorithm: rsaEncryption
                RSA Public-Key: (2048 bit)
                Modulus:
                    00:f0:0e:38:07:b7:bb:90:a4:57:de:5e:c1:e7:04:
                    36:3a:e2:a7:8c:06:ad:4d:39:c5:d2:06:a5:79:1d:
                    f5:e1:6b:46:91:fd:1c:49:0b:bd:66:09:cb:e9:74:
                    83:06:74:c2:44:f7:e2:d6:19:56:98:ec:87:e1:e0:
                    f0:98:2b:19:02:41:8a:d7:ba:5e:5d:05:ff:90:d2:
                    42:bd:0a:2c:a3:20:e9:4a:aa:85:3b:8b:ad:f1:91:
                    a3:60:93:5d:ab:29:f0:1f:4f:2d:ae:42:41:02:aa:
                    7c:d2:cb:2b:59:01:a7:a9:4f:26:4d:1e:58:60:21:
                    33:db:3c:72:2b:1b:5b:45:22:c9:ab:9f:e4:5a:42:
                    6c:a7:7b:1c:40:46:6f:15:b4:f5:d3:1f:86:a4:e1:
                    fc:33:d1:6f:c7:50:ec:1c:df:04:56:32:0f:3c:b2:
                    99:6b:bb:1e:26:bb:6e:f3:cf:d5:23:ba:dd:57:40:
                    83:08:b5:d4:39:cc:10:2a:55:ab:56:ab:c0:67:5e:
                    1b:79:8a:18:20:ee:04:59:d6:de:6b:eb:68:21:21:
                    f5:23:65:27:31:38:83:d1:c9:f3:b6:63:1f:d3:4c:
                    03:74:c9:b8:52:4b:7c:39:e5:c6:30:46:72:16:4a:
                    a2:3a:29:0a:a3:03:b2:5a:9c:54:86:1c:0d:81:d2:
                    6b:53
                Exponent: 65537 (0x10001)
        X509v3 extensions:
            X509v3 Basic Constraints: 
                CA:FALSE
            X509v3 Subject Key Identifier: 
                8E:3E:03:D2:5F:F7:C8:72:27:DF:3A:51:08:83:7B:40:5C:26:43:19
            X509v3 Authority Key Identifier: 
                keyid:89:E6:26:3E:D8:5A:84:3A:46:28:C7:73:BB:03:36:59:22:0B:69:AC
                DirName:/CN=ChangeMe
                serial:45:A9:61:A0:5C:85:EA:AE:5C:45:58:7F:74:61:DC:FE:DD:5E:40:CD

            X509v3 Extended Key Usage: 
                TLS Web Client Authentication
            X509v3 Key Usage: 
                Digital Signature
    Signature Algorithm: sha256WithRSAEncryption
         b5:6e:2b:42:0d:26:46:de:24:80:28:f5:fa:99:f0:e6:85:13:
         e4:ed:e4:2c:01:00:09:16:67:a8:9f:3a:0c:c2:c1:e9:03:1c:
         e9:4f:28:b5:e1:c2:99:be:ff:2d:b7:35:e1:e9:f2:2e:73:43:
         9d:fb:49:44:0d:f1:cd:00:a6:1a:73:88:73:ba:ee:38:b4:d1:
         d8:1f:36:95:06:d9:b4:3d:3e:02:e9:52:8d:6c:89:d7:cc:98:
         8d:02:85:2d:2a:dd:11:61:9f:64:24:dd:be:7c:05:7e:52:53:
         50:73:86:c8:2a:0b:39:15:e8:a8:0e:70:f1:79:36:59:03:a3:
         aa:0d:35:54:f9:55:79:e9:28:42:d3:b0:8d:e0:8d:93:e7:aa:
         59:8f:92:86:19:12:d7:e2:17:50:0a:c9:ba:1b:37:3a:98:5a:
         8a:34:af:09:0f:ce:1b:b5:ea:43:d7:b1:46:1d:ec:fb:35:f9:
         19:aa:c7:11:51:2d:3b:65:9a:3a:cd:6f:14:9d:ee:17:71:1a:
         81:c4:fe:de:e4:c7:36:72:7e:7a:95:96:2e:af:b1:60:5f:13:
         bc:ba:c5:6e:fc:20:c4:c2:14:83:fc:7a:47:a8:87:7d:56:e7:
         cb:dd:72:0d:65:7e:50:1d:89:46:93:ff:04:97:48:12:e5:a3:
         74:80:43:a3
-----BEGIN CERTIFICATE-----
MIIDTTCCAjWgAwIBAgIQGPtM1pJgCb6ghfhwox4TazANBgkqhkiG9w0BAQsFADAT
MREwDwYDVQQDDAhDaGFuZ2VNZTAeFw0yMTA0MjAwMjI1NDlaFw0yMzA3MjQwMjI1
NDlaMBAxDjAMBgNVBAMMBXRlc3QyMIIBIjANBgkqhkiG9w0BAQEFAAOCAQ8AMIIB
CgKCAQEA8A44B7e7kKRX3l7B5wQ2OuKnjAatTTnF0galeR314WtGkf0cSQu9ZgnL
6XSDBnTCRPfi1hlWmOyH4eDwmCsZAkGK17peXQX/kNJCvQosoyDpSqqFO4ut8ZGj
YJNdqynwH08trkJBAqp80ssrWQGnqU8mTR5YYCEz2zxyKxtbRSLJq5/kWkJsp3sc
QEZvFbT10x+GpOH8M9Fvx1DsHN8EVjIPPLKZa7seJrtu88/VI7rdV0CDCLXUOcwQ
KlWrVqvAZ14beYoYIO4EWdbea+toISH1I2UnMTiD0cnztmMf00wDdMm4Ukt8OeXG
MEZyFkqiOikKowOyWpxUhhwNgdJrUwIDAQABo4GfMIGcMAkGA1UdEwQCMAAwHQYD
VR0OBBYEFI4+A9Jf98hyJ986UQiDe0BcJkMZME4GA1UdIwRHMEWAFInmJj7YWoQ6
RijHc7sDNlkiC2msoRekFTATMREwDwYDVQQDDAhDaGFuZ2VNZYIURalhoFyF6q5c
RVh/dGHc/t1eQM0wEwYDVR0lBAwwCgYIKwYBBQUHAwIwCwYDVR0PBAQDAgeAMA0G
CSqGSIb3DQEBCwUAA4IBAQC1bitCDSZG3iSAKPX6mfDmhRPk7eQsAQAJFmeonzoM
wsHpAxzpTyi14cKZvv8ttzXh6fIuc0Od+0lEDfHNAKYac4hzuu44tNHYHzaVBtm0
PT4C6VKNbInXzJiNAoUtKt0RYZ9kJN2+fAV+UlNQc4bIKgs5FeioDnDxeTZZA6Oq
DTVU+VV56ShC07CN4I2T56pZj5KGGRLX4hdQCsm6Gzc6mFqKNK8JD84btepD17FG
Hez7NfkZqscRUS07ZZo6zW8Une4XcRqBxP7e5Mc2cn56lZYur7FgXxO8usVu/CDE
whSD/HpHqId9VufL3XINZX5QHYlGk/8El0gS5aN0gEOj
-----END CERTIFICATE-----
