Certificate:
    Data:
        Version: 3 (0x2)
        Serial Number:
            75:e3:e7:a6:0f:f6:94:cb:e8:5f:bd:85:91:26:7c:b5
    Signature Algorithm: sha256WithRSAEncryption
        Issuer: CN=ChangeMe
        Validity
            Not Before: Oct 18 07:38:02 2021 GMT
            Not After : Jan 21 07:38:02 2024 GMT
        Subject: CN=hm-test02.ovpn
        Subject Public Key Info:
            Public Key Algorithm: rsaEncryption
                Public-Key: (2048 bit)
                Modulus:
                    00:b7:26:01:c1:13:b8:9a:6a:94:cc:d8:f4:4a:6c:
                    91:7b:17:cc:2f:9a:3a:98:69:b4:98:71:38:49:76:
                    34:1e:4b:4e:1d:0b:91:89:fc:08:2f:05:01:8c:5f:
                    9e:b1:f9:de:4c:92:e6:f4:bb:e3:d8:66:75:21:68:
                    09:9a:44:7c:08:ff:52:29:95:46:1f:c3:69:83:6a:
                    c7:fd:6a:1d:32:f4:d4:9f:ca:89:a4:be:3f:b5:30:
                    43:72:42:ea:ea:1a:8e:73:dd:07:16:0f:08:56:2f:
                    79:34:99:70:14:5f:04:20:c7:20:d8:20:9b:d6:02:
                    53:4b:b0:68:0f:57:a9:7e:30:7a:c9:f5:ac:b7:c1:
                    98:e9:6b:af:db:61:08:10:3b:1a:ab:50:ee:3c:c7:
                    92:c7:9e:10:d4:84:6a:90:f0:47:d0:31:16:a7:48:
                    97:bd:a8:4e:a3:97:48:7f:ed:44:25:21:1b:4b:11:
                    81:29:ca:b8:91:f7:ec:7a:89:35:a5:98:f7:62:37:
                    34:04:23:98:ae:ba:bf:0b:35:eb:08:6f:7a:8d:94:
                    8c:91:ee:f6:3a:df:10:ac:b0:8a:ea:70:27:47:00:
                    41:21:95:18:50:b1:19:05:00:f4:c5:2e:ce:27:1e:
                    9c:4b:04:e2:1c:97:1f:1b:90:2c:34:7f:db:57:53:
                    c2:69
                Exponent: 65537 (0x10001)
        X509v3 extensions:
            X509v3 Basic Constraints: 
                CA:FALSE
            X509v3 Subject Key Identifier: 
                FA:E5:30:69:A2:E5:E7:0F:68:17:86:9A:B4:84:0A:43:56:1E:F9:A4
            X509v3 Authority Key Identifier: 
                keyid:89:E6:26:3E:D8:5A:84:3A:46:28:C7:73:BB:03:36:59:22:0B:69:AC
                DirName:/CN=ChangeMe
                serial:45:A9:61:A0:5C:85:EA:AE:5C:45:58:7F:74:61:DC:FE:DD:5E:40:CD

            X509v3 Extended Key Usage: 
                TLS Web Client Authentication
            X509v3 Key Usage: 
                Digital Signature
    Signature Algorithm: sha256WithRSAEncryption
         95:7d:82:c5:5d:4e:7b:1c:2c:ea:fc:f4:8b:bb:cb:d3:41:96:
         b4:49:bf:d6:02:b3:e1:aa:e3:b4:b0:25:50:ba:dd:0f:4b:cb:
         ca:7a:86:96:fe:c9:e0:22:d9:09:21:79:31:f2:ff:02:41:83:
         98:46:b9:08:72:db:2c:0f:fa:99:24:79:d4:4a:c3:b0:3b:ba:
         0b:e1:66:c0:4c:53:88:93:e9:10:39:ac:02:8e:6e:d6:f8:81:
         5f:d6:ff:af:93:26:d5:1a:1d:95:4c:48:bf:b6:d1:43:b3:22:
         0c:b9:47:12:65:77:85:79:1b:21:93:0d:46:ee:bc:aa:fe:ed:
         3a:e7:e2:4f:55:8b:f8:55:c5:0c:6f:42:03:c5:4d:c4:1c:42:
         d0:61:d4:f1:c1:47:8c:63:b8:02:18:46:77:55:c8:9e:34:45:
         e0:57:bb:ed:30:e9:af:d6:10:1d:1f:b2:41:9c:63:f9:36:a0:
         7d:00:a8:92:fa:0d:5d:b8:a3:9b:f0:16:2f:af:42:07:65:05:
         81:66:66:c7:a3:cc:57:b5:1c:1a:02:68:26:38:a5:81:74:4f:
         4b:05:d6:82:74:66:85:fc:2e:63:64:15:14:a0:50:d8:f9:bb:
         8c:0f:41:df:e5:83:e8:bc:50:31:8a:2d:a0:19:45:90:48:95:
         c9:92:e7:2b
-----BEGIN CERTIFICATE-----
MIIDVjCCAj6gAwIBAgIQdePnpg/2lMvoX72FkSZ8tTANBgkqhkiG9w0BAQsFADAT
MREwDwYDVQQDDAhDaGFuZ2VNZTAeFw0yMTEwMTgwNzM4MDJaFw0yNDAxMjEwNzM4
MDJaMBkxFzAVBgNVBAMMDmhtLXRlc3QwMi5vdnBuMIIBIjANBgkqhkiG9w0BAQEF
AAOCAQ8AMIIBCgKCAQEAtyYBwRO4mmqUzNj0SmyRexfML5o6mGm0mHE4SXY0HktO
HQuRifwILwUBjF+esfneTJLm9Lvj2GZ1IWgJmkR8CP9SKZVGH8Npg2rH/WodMvTU
n8qJpL4/tTBDckLq6hqOc90HFg8IVi95NJlwFF8EIMcg2CCb1gJTS7BoD1epfjB6
yfWst8GY6Wuv22EIEDsaq1DuPMeSx54Q1IRqkPBH0DEWp0iXvahOo5dIf+1EJSEb
SxGBKcq4kffseok1pZj3Yjc0BCOYrrq/CzXrCG96jZSMke72Ot8QrLCK6nAnRwBB
IZUYULEZBQD0xS7OJx6cSwTiHJcfG5AsNH/bV1PCaQIDAQABo4GfMIGcMAkGA1Ud
EwQCMAAwHQYDVR0OBBYEFPrlMGmi5ecPaBeGmrSECkNWHvmkME4GA1UdIwRHMEWA
FInmJj7YWoQ6RijHc7sDNlkiC2msoRekFTATMREwDwYDVQQDDAhDaGFuZ2VNZYIU
RalhoFyF6q5cRVh/dGHc/t1eQM0wEwYDVR0lBAwwCgYIKwYBBQUHAwIwCwYDVR0P
BAQDAgeAMA0GCSqGSIb3DQEBCwUAA4IBAQCVfYLFXU57HCzq/PSLu8vTQZa0Sb/W
ArPhquO0sCVQut0PS8vKeoaW/sngItkJIXkx8v8CQYOYRrkIctssD/qZJHnUSsOw
O7oL4WbATFOIk+kQOawCjm7W+IFf1v+vkybVGh2VTEi/ttFDsyIMuUcSZXeFeRsh
kw1G7ryq/u065+JPVYv4VcUMb0IDxU3EHELQYdTxwUeMY7gCGEZ3VcieNEXgV7vt
MOmv1hAdH7JBnGP5NqB9AKiS+g1duKOb8BYvr0IHZQWBZmbHo8xXtRwaAmgmOKWB
dE9LBdaCdGaF/C5jZBUUoFDY+buMD0Hf5YPovFAxii2gGUWQSJXJkucr
-----END CERTIFICATE-----
